

Microchip MPLAB XC8 Assembler V2.45 build 20230818022343 
                                                                                               Tue Feb 25 11:48:22 2025

Microchip MPLAB XC8 C Compiler v2.45 (Free license) build 20230818022343 Og1 
     1                           	processor	18F25K80
     2                           	fnconf	rparam,??,?,0
     3                           	pagewidth 120
     4                           	opt	flic
     5                           	psect	smallconst,global,reloc=2,class=SMALLCONST,delta=1,noexec
     6                           	psect	nvCOMRAM,global,class=COMRAM,space=1,delta=1,lowdata,noexec
     7                           	psect	nvBANK0,global,class=BANK0,space=1,delta=1,lowdata,noexec
     8                           	psect	cinit,global,reloc=2,class=CODE,delta=1
     9                           	psect	bssCOMRAM,global,class=COMRAM,space=1,delta=1,lowdata,noexec
    10                           	psect	bssBANK0,global,class=BANK0,space=1,delta=1,lowdata,noexec
    11                           	psect	cstackBANK0,global,class=BANK0,space=1,delta=1,lowdata,noexec
    12                           	psect	cstackCOMRAM,global,class=COMRAM,space=1,delta=1,lowdata,noexec
    13                           	psect	text0,global,reloc=2,class=CODE,delta=1
    14                           	psect	text1,global,reloc=2,class=CODE,delta=1
    15                           	psect	text2,global,reloc=2,class=CODE,delta=1
    16                           	psect	text3,global,reloc=2,class=CODE,delta=1
    17                           	psect	text4,global,reloc=2,class=CODE,delta=1
    18                           	psect	text5,global,reloc=2,class=CODE,delta=1
    19                           	psect	text6,global,reloc=2,class=CODE,delta=1
    20                           	psect	text7,global,reloc=2,class=CODE,delta=1
    21                           	psect	text8,global,reloc=2,class=CODE,delta=1
    22                           	psect	text9,global,reloc=2,class=CODE,delta=1
    23                           	psect	text10,global,reloc=2,class=CODE,delta=1
    24                           	psect	text11,global,reloc=2,class=CODE,delta=1
    25                           	psect	text12,global,reloc=2,class=CODE,delta=1
    26                           	psect	text13,global,reloc=2,class=CODE,delta=1,inline
    27                           	psect	text14,global,reloc=2,class=CODE,delta=1
    28                           	psect	text15,global,reloc=2,class=CODE,delta=1
    29                           	psect	text16,global,reloc=2,class=CODE,delta=1,inline
    30                           	psect	text17,global,reloc=2,class=CODE,delta=1,inline
    31                           	psect	text18,global,reloc=2,class=CODE,delta=1
    32                           	psect	text19,global,reloc=2,class=CODE,delta=1
    33                           	psect	text20,global,reloc=2,class=CODE,delta=1
    34                           	psect	text21,global,reloc=2,class=CODE,delta=1
    35                           	psect	text22,global,reloc=2,class=CODE,delta=1
    36                           	psect	text23,global,reloc=2,class=CODE,delta=1
    37                           	psect	text24,global,reloc=2,class=CODE,delta=1
    38                           	psect	text25,global,reloc=2,class=CODE,delta=1
    39                           	psect	text26,global,reloc=2,class=CODE,delta=1
    40                           	psect	text27,global,reloc=2,class=CODE,delta=1
    41                           	psect	text28,global,reloc=2,class=CODE,delta=1
    42                           	psect	text29,global,reloc=2,class=CODE,delta=1
    43                           	psect	text30,global,reloc=2,class=CODE,delta=1
    44                           	psect	text31,global,reloc=2,class=CODE,delta=1
    45                           	psect	text32,global,reloc=2,class=CODE,delta=1
    46                           	psect	text33,global,reloc=2,class=CODE,delta=1
    47                           	psect	text34,global,reloc=2,class=CODE,delta=1,inline
    48                           	psect	text35,global,reloc=2,class=CODE,delta=1,inline
    49                           	psect	text36,global,reloc=2,class=CODE,delta=1,inline
    50                           	psect	text37,global,reloc=2,class=CODE,delta=1,inline
    51                           	psect	text38,global,reloc=2,class=CODE,delta=1,inline
    52                           	psect	text39,global,reloc=2,class=CODE,delta=1,inline
    53                           	psect	text40,global,reloc=2,class=CODE,delta=1,inline
    54                           	psect	text41,global,reloc=2,class=CODE,delta=1
    55                           	psect	text42,global,reloc=2,class=CODE,delta=1
    56                           	psect	text43,global,reloc=2,class=CODE,delta=1
    57                           	psect	text44,global,reloc=2,class=CODE,delta=1
    58                           	psect	text45,global,reloc=2,class=CODE,delta=1
    59                           	psect	text46,global,reloc=2,class=CODE,delta=1
    60                           	psect	text47,global,reloc=2,class=CODE,delta=1
    61                           	psect	text48,global,reloc=2,class=CODE,delta=1
    62                           	psect	text49,global,reloc=2,class=CODE,delta=1
    63                           	psect	text50,global,reloc=2,class=CODE,delta=1
    64                           	psect	text51,global,reloc=2,class=CODE,delta=1,inline
    65                           	psect	text52,global,reloc=2,class=CODE,delta=1,inline
    66                           	psect	text53,global,reloc=2,class=CODE,delta=1,inline
    67                           	psect	text54,global,reloc=2,class=CODE,delta=1
    68                           	psect	text55,global,reloc=2,class=CODE,delta=1,inline
    69                           	psect	text56,global,reloc=2,class=CODE,delta=1,inline
    70                           	psect	text57,global,reloc=2,class=CODE,delta=1,inline
    71                           	psect	intcode,global,reloc=2,class=CODE,delta=1
    72                           	psect	text59,global,reloc=2,class=CODE,delta=1
    73                           	psect	text60,global,reloc=2,class=CODE,delta=1
    74                           	psect	text61,global,reloc=2,class=CODE,delta=1
    75                           	psect	text62,global,reloc=2,class=CODE,delta=1
    76                           	psect	text63,global,reloc=2,class=CODE,delta=1
    77                           	psect	text64,global,reloc=2,class=CODE,delta=1
    78                           	psect	intsave_regs,global,class=BIGRAM,space=1,delta=1,noexec
    79                           	psect	text65,global,reloc=2,class=CODE,delta=1
    80                           	psect	rparam,global,class=COMRAM,space=1,delta=1,noexec
    81                           	psect	temp,global,ovrld,common,class=COMRAM,space=1,delta=1
    82                           	psect	config,global,abs,ovrld,class=CONFIG,space=4,delta=1,noexec
    83   000000                     
    84                           ; Generated 21/07/2023 GMT
    85                           ; 
    86                           ; Copyright © 2023, Microchip Technology Inc. and its subsidiaries ("Microchip")
    87                           ; All rights reserved.
    88                           ; 
    89                           ; This software is developed by Microchip Technology Inc. and its subsidiaries ("Microch
      +                          ip").
    90                           ; 
    91                           ; Redistribution and use in source and binary forms, with or without modification, are
    92                           ; permitted provided that the following conditions are met:
    93                           ; 
    94                           ;     1. Redistributions of source code must retain the above copyright notice, this lis
      +                          t of
    95                           ;        conditions and the following disclaimer.
    96                           ; 
    97                           ;     2. Redistributions in binary form must reproduce the above copyright notice, this 
      +                          list
    98                           ;        of conditions and the following disclaimer in the documentation and/or other
    99                           ;        materials provided with the distribution. Publication is not required when
   100                           ;        this file is used in an embedded application.
   101                           ; 
   102                           ;     3. Microchip's name may not be used to endorse or promote products derived from th
      +                          is
   103                           ;        software without specific prior written permission.
   104                           ; 
   105                           ; THIS SOFTWARE IS PROVIDED BY MICROCHIP "AS IS" AND ANY EXPRESS OR IMPLIED WARRANTIES,
   106                           ; INCLUDING, BUT NOT LIMITED TO, THE IMPLIED WARRANTIES OF MERCHANTABILITY AND FITNESS F
      +                          OR
   107                           ; PURPOSE ARE DISCLAIMED.  IN NO EVENT SHALL MICROCHIP BE LIABLE FOR ANY DIRECT, INDIREC
      +                          T,
   108                           ; INCIDENTAL, SPECIAL, EXEMPLARY, OR CONSEQUENTIAL DAMAGES (INCLUDING BUT NOT LIMITED TO
   109                           ; PROCUREMENT OF SUBSTITUTE GOODS OR SERVICES; LOSS OF USE, DATA OR PROFITS; OR BUSINESS
   110                           ; INTERRUPTION) HOWSOEVER CAUSED AND ON ANY THEORY OF LIABILITY, WHETHER IN CONTRACT, ST
      +                          RICT
   111                           ; LIABILITY, OR TORT (INCLUDING NEGLIGENCE OR OTHERWISE) ARISING IN ANY WAY OUT OF THE U
      +                          SE OF
   112                           ; THIS SOFTWARE, EVEN IF ADVISED OF THE POSSIBILITY OF SUCH DAMAGE.
   113                           ; 
   114                           ; 
   115                           ; Code-generator required, PIC18F25K80 Definitions
   116                           ; 
   117                           ; SFR Addresses
   118   000000                     
   119                           	psect	smallconst
   120   000F00                     __psmallconst:
   121                           	callstack 0
   122   000F00  00                 	db	0
   123   000F01                     _i2c_fsmStateTable:
   124                           	callstack 0
   125   000F01  9C                 	db	low _I2C_DO_IDLE
   126   000F02  18                 	db	high _I2C_DO_IDLE
   127   000F03  74                 	db	low _I2C_DO_SEND_ADR_READ
   128   000F04  18                 	db	high _I2C_DO_SEND_ADR_READ
   129   000F05  64                 	db	low _I2C_DO_SEND_ADR_WRITE
   130   000F06  18                 	db	high _I2C_DO_SEND_ADR_WRITE
   131   000F07  9E                 	db	low _I2C_DO_TX
   132   000F08  10                 	db	high _I2C_DO_TX
   133   000F09  16                 	db	low _I2C_DO_RX
   134   000F0A  12                 	db	high _I2C_DO_RX
   135   000F0B  90                 	db	low _I2C_DO_RCEN
   136   000F0C  18                 	db	high _I2C_DO_RCEN
   137   000F0D  4C                 	db	low _I2C_DO_TX_EMPTY
   138   000F0E  13                 	db	high _I2C_DO_TX_EMPTY
   139   000F0F  0A                 	db	low _I2C_DO_SEND_RESTART_READ
   140   000F10  19                 	db	high _I2C_DO_SEND_RESTART_READ
   141   000F11  02                 	db	low _I2C_DO_SEND_RESTART_WRITE
   142   000F12  19                 	db	high _I2C_DO_SEND_RESTART_WRITE
   143   000F13  FA                 	db	low _I2C_DO_SEND_RESTART
   144   000F14  18                 	db	high _I2C_DO_SEND_RESTART
   145   000F15  F2                 	db	low _I2C_DO_SEND_STOP
   146   000F16  18                 	db	high _I2C_DO_SEND_STOP
   147   000F17  EA                 	db	low _I2C_DO_RX_ACK
   148   000F18  18                 	db	high _I2C_DO_RX_ACK
   149   000F19  E2                 	db	low _I2C_DO_RX_NACK_STOP
   150   000F1A  18                 	db	high _I2C_DO_RX_NACK_STOP
   151   000F1B  DA                 	db	low _I2C_DO_RX_NACK_RESTART
   152   000F1C  18                 	db	high _I2C_DO_RX_NACK_RESTART
   153   000F1D  84                 	db	low _I2C_DO_RESET
   154   000F1E  18                 	db	high _I2C_DO_RESET
   155   000F1F  3E                 	db	low _I2C_DO_ADDRESS_NACK
   156   000F20  14                 	db	high _I2C_DO_ADDRESS_NACK
   157   000F21                     __end_of_i2c_fsmStateTable:
   158                           	callstack 0
   159   000000                     _RCREG1	set	4014
   160   000000                     _TXREG1	set	4013
   161   000000                     _SPBRG1	set	4015
   162   000000                     _TXSTA1	set	4012
   163   000F21  00                 	db	0	; dummy byte at the end
   164   000000                     
   165                           	psect	nvCOMRAM
   166   00001F                     __pnvCOMRAM:
   167                           	callstack 0
   168   00001F                     _EUSART1_TxDefaultInterruptHandler:
   169                           	callstack 0
   170   00001F                     	ds	2
   171                           
   172                           	psect	nvBANK0
   173   0000DA                     __pnvBANK0:
   174                           	callstack 0
   175   0000DA                     _EUSART1_ErrorHandler:
   176                           	callstack 0
   177   0000DA                     	ds	2
   178   0000DC                     _EUSART1_OverrunErrorHandler:
   179                           	callstack 0
   180   0000DC                     	ds	2
   181   0000DE                     _EUSART1_FramingErrorHandler:
   182                           	callstack 0
   183   0000DE                     	ds	2
   184   0000E0                     _EUSART1_RxDefaultInterruptHandler:
   185                           	callstack 0
   186   0000E0                     	ds	2
   187   000000                     _RCSTA1bits	set	4011
   188   000000                     _TXSTA1bits	set	4012
   189   000000                     _SSPSTATbits	set	4039
   190   000000                     _SSPCON2bits	set	4037
   191   000000                     _SSPCON1bits	set	4038
   192   000000                     _WPUB	set	3931
   193   000000                     _ANCON1	set	3932
   194   000000                     _ANCON0	set	3933
   195   000000                     _SPBRGH1	set	3965
   196   000000                     _PIE1bits	set	3997
   197   000000                     _PIR2bits	set	4001
   198   000000                     _SSPCON2	set	4037
   199   000000                     _SSPCON1	set	4038
   200   000000                     _SSPSTAT	set	4039
   201   000000                     _RCONbits	set	4048
   202   000000                     _OSCCON2	set	4050
   203   000000                     _OSCCON	set	4051
   204   000000                     _SSPBUF	set	4041
   205   000000                     _SSPADD	set	4040
   206   000000                     _BAUDCON1	set	4007
   207   000000                     _PIR1bits	set	3998
   208   000000                     _RCSTA1	set	4011
   209   000000                     _LATA	set	3977
   210   000000                     _REFOCON	set	3994
   211   000000                     _OSCTUNE	set	3995
   212   000000                     _INTCON2bits	set	4081
   213   000000                     _INTCONbits	set	4082
   214   000000                     _TRISA	set	3986
   215   000000                     _LATC	set	3979
   216   000000                     _LATB	set	3978
   217   000000                     _TRISC	set	3988
   218   000000                     _TRISB	set	3987
   219                           
   220                           ; #config settings
   221                           
   222                           	psect	cinit
   223   00173C                     __pcinit:
   224                           	callstack 0
   225   00173C                     start_initialization:
   226                           	callstack 0
   227   00173C                     __initialization:
   228                           	callstack 0
   229                           
   230                           ; Clear objects allocated to BANK0 (60 bytes)
   231   00173C  EE00  F09E         	lfsr	0,__pbssBANK0
   232   001740  0E3C               	movlw	60
   233   001742                     clear_0:
   234   001742  6AEE               	clrf	postinc0,c
   235   001744  06E8               	decf	wreg,f,c
   236   001746  E1FD               	bnz	clear_0
   237                           
   238                           ; Clear objects allocated to COMRAM (7 bytes)
   239   001748  EE00  F018         	lfsr	0,__pbssCOMRAM
   240   00174C  0E07               	movlw	7
   241   00174E                     clear_1:
   242   00174E  6AEE               	clrf	postinc0,c
   243   001750  06E8               	decf	wreg,f,c
   244   001752  E1FD               	bnz	clear_1
   245   001754                     end_of_initialization:
   246                           	callstack 0
   247   001754                     __end_of__initialization:
   248                           	callstack 0
   249   001754  9021               	bcf	int$flags,0,c	;clear compiler interrupt flag (level 1)
   250   001756  9221               	bcf	int$flags,1,c	;clear compiler interrupt flag (level 2)
   251   001758  0E00               	movlw	low (__Lmediumconst shr (0+16))
   252   00175A  6EF8               	movwf	tblptru,c
   253   00175C  0100               	movlb	0
   254   00175E  EF91  F007         	goto	_main	;jump to C main() function
   255                           
   256                           	psect	bssCOMRAM
   257   000018                     __pbssCOMRAM:
   258                           	callstack 0
   259   000018                     _eusart1RxLastError:
   260                           	callstack 0
   261   000018                     	ds	1
   262   000019                     _eusart1RxCount:
   263                           	callstack 0
   264   000019                     	ds	1
   265   00001A                     _eusart1RxTail:
   266                           	callstack 0
   267   00001A                     	ds	1
   268   00001B                     _eusart1RxHead:
   269                           	callstack 0
   270   00001B                     	ds	1
   271   00001C                     _eusart1TxBufferRemaining:
   272                           	callstack 0
   273   00001C                     	ds	1
   274   00001D                     _eusart1TxTail:
   275                           	callstack 0
   276   00001D                     	ds	1
   277   00001E                     _eusart1TxHead:
   278                           	callstack 0
   279   00001E                     	ds	1
   280                           
   281                           	psect	bssBANK0
   282   00009E                     __pbssBANK0:
   283                           	callstack 0
   284   00009E                     _I2C_Status:
   285                           	callstack 0
   286   00009E                     	ds	36
   287   0000C2                     _eusart1RxStatusBuffer:
   288                           	callstack 0
   289   0000C2                     	ds	8
   290   0000CA                     _eusart1RxBuffer:
   291                           	callstack 0
   292   0000CA                     	ds	8
   293   0000D2                     _eusart1TxBuffer:
   294                           	callstack 0
   295   0000D2                     	ds	8
   296                           
   297                           	psect	cstackBANK0
   298   000060                     __pcstackBANK0:
   299                           	callstack 0
   300   000060                     main@Addr2:
   301                           	callstack 0
   302                           
   303                           ; 20 bytes @ 0x0
   304   000060                     	ds	20
   305   000074                     main@message:
   306                           	callstack 0
   307                           
   308                           ; 20 bytes @ 0x14
   309   000074                     	ds	20
   310   000088                     main@addr:
   311                           	callstack 0
   312                           
   313                           ; 20 bytes @ 0x28
   314   000088                     	ds	20
   315   00009C                     main@i:
   316                           	callstack 0
   317                           
   318                           ; 2 bytes @ 0x3C
   319   00009C                     	ds	2
   320                           
   321                           	psect	cstackCOMRAM
   322   000001                     __pcstackCOMRAM:
   323                           	callstack 0
   324   000001                     ??_INTERRUPT_InterruptManager:
   325   000001                     
   326                           ; 1 bytes @ 0x0
   327   000001                     	ds	4
   328   000005                     I2C_Open@address:
   329                           	callstack 0
   330   000005                     I2C_Close@returnValue:
   331                           	callstack 0
   332   000005                     I2C_MasterSendTxData@data:
   333                           	callstack 0
   334   000005                     I2C_SetBuffer@buffer:
   335                           	callstack 0
   336   000005                     I2C_SetCallback@cb:
   337                           	callstack 0
   338   000005                     EUSART1_SetFramingErrorHandler@interruptHandler:
   339                           	callstack 0
   340   000005                     EUSART1_SetOverrunErrorHandler@interruptHandler:
   341                           	callstack 0
   342   000005                     EUSART1_SetErrorHandler@interruptHandler:
   343                           	callstack 0
   344   000005                     EUSART1_SetTxInterruptHandler@interruptHandler:
   345                           	callstack 0
   346   000005                     EUSART1_SetRxInterruptHandler@interruptHandler:
   347                           	callstack 0
   348                           
   349                           ; 2 bytes @ 0x4
   350   000005                     	ds	1
   351   000006                     I2C_Open@returnValue:
   352                           	callstack 0
   353                           
   354                           ; 1 bytes @ 0x5
   355   000006                     	ds	1
   356   000007                     I2C_SetBuffer@bufferSize:
   357                           	callstack 0
   358   000007                     I2C_SetCallback@ptr:
   359                           	callstack 0
   360                           
   361                           ; 2 bytes @ 0x6
   362   000007                     	ds	2
   363   000009                     I2C_SetCallback@idx:
   364                           	callstack 0
   365                           
   366                           ; 1 bytes @ 0x8
   367   000009                     	ds	1
   368   00000A                     I2C_SetDataCompleteCallback@cb:
   369                           	callstack 0
   370                           
   371                           ; 2 bytes @ 0x9
   372   00000A                     	ds	2
   373   00000C                     I2C_SetDataCompleteCallback@ptr:
   374                           	callstack 0
   375                           
   376                           ; 2 bytes @ 0xB
   377   00000C                     	ds	2
   378   00000E                     rd1RegCompleteHandler@ptr:
   379                           	callstack 0
   380   00000E                     rd2RegCompleteHandler@ptr:
   381                           	callstack 0
   382   00000E                     wr1RegCompleteHandler@ptr:
   383                           	callstack 0
   384   00000E                     wr2RegCompleteHandler@ptr:
   385                           	callstack 0
   386   00000E                     rdBlkRegCompleteHandler@ptr:
   387                           	callstack 0
   388   00000E                     I2C_CallbackReturnReset@funPtr:
   389                           	callstack 0
   390                           
   391                           ; 2 bytes @ 0xD
   392   00000E                     	ds	2
   393   000010                     ??_rdBlkRegCompleteHandler:
   394   000010                     
   395                           ; 1 bytes @ 0xF
   396   000010                     	ds	1
   397   000011                     ??_I2C_DO_TX:
   398   000011                     ??_I2C_DO_RX:
   399   000011                     ??_I2C_DO_TX_EMPTY:
   400   000011                     ??_I2C_DO_ADDRESS_NACK:
   401                           
   402                           ; 1 bytes @ 0x10
   403   000011                     	ds	2
   404   000013                     ??_I2C_MasterFsm:
   405                           
   406                           ; 1 bytes @ 0x12
   407   000013                     	ds	1
   408   000014                     I2C_MasterOperation@read:
   409                           	callstack 0
   410                           
   411                           ; 1 bytes @ 0x13
   412   000014                     	ds	1
   413   000015                     I2C_MasterOperation@returnValue:
   414                           	callstack 0
   415                           
   416                           ; 1 bytes @ 0x14
   417   000015                     	ds	1
   418   000016                     ??_main:
   419                           
   420                           ; 1 bytes @ 0x15
   421   000016                     	ds	2
   422                           
   423 ;;
   424 ;;Main: autosize = 0, tempsize = 2, incstack = 0, save=0
   425 ;;
   426 ;; *************** function _main *****************
   427 ;; Defined at:
   428 ;;		line 22 in file "main.c"
   429 ;; Parameters:    Size  Location     Type
   430 ;;		None
   431 ;; Auto vars:     Size  Location     Type
   432 ;;  i               2   60[BANK0 ] int 
   433 ;;  addr           20   40[BANK0 ] unsigned char [20]
   434 ;;  message        20   20[BANK0 ] unsigned char [20]
   435 ;;  Addr2          20    0[BANK0 ] unsigned char [20]
   436 ;; Return value:  Size  Location     Type
   437 ;;                  1    wreg      void 
   438 ;; Registers used:
   439 ;;		wreg, fsr1l, fsr1h, fsr2l, fsr2h, status,2, status,0, pcl, pclath, pclatu, tosl, tblptrl, tblptrh, tblptru, prodl, p
      +rodh, cstack
   440 ;; Tracked objects:
   441 ;;		On entry : 0/0
   442 ;;		On exit  : 0/0
   443 ;;		Unchanged: 0/0
   444 ;; Data sizes:     COMRAM   BANK0   BANK1   BANK2   BANK3   BANK4   BANK5   BANK6   BANK7   BANK8   BANK9  BANK10  BANK1
      +1  BANK12  BANK13  BANK14
   445 ;;      Params:         0       0       0       0       0       0       0       0       0       0       0       0       
      +0       0       0       0
   446 ;;      Locals:         0      62       0       0       0       0       0       0       0       0       0       0       
      +0       0       0       0
   447 ;;      Temps:          2       0       0       0       0       0       0       0       0       0       0       0       
      +0       0       0       0
   448 ;;      Totals:         2      62       0       0       0       0       0       0       0       0       0       0       
      +0       0       0       0
   449 ;;Total ram usage:       64 bytes
   450 ;; Hardware stack levels required when called: 11
   451 ;; This function calls:
   452 ;;		_I2C_Close
   453 ;;		_I2C_MasterOperation
   454 ;;		_I2C_Open
   455 ;;		_I2C_SetBuffer
   456 ;;		_SYSTEM_Initialize
   457 ;; This function is called by:
   458 ;;		Startup code after reset
   459 ;; This function uses a non-reentrant model
   460 ;;
   461                           
   462                           	psect	text0
   463   000F22                     __ptext0:
   464                           	callstack 0
   465   000F22                     _main:
   466                           	callstack 20
   467   000F22                     
   468                           ;main.c: 25:     SYSTEM_Initialize();
   469   000F22  EC02  F00C         	call	_SYSTEM_Initialize	;wreg free
   470   000F26                     
   471                           ;main.c: 27:     uint8_t message[20];;main.c: 28:     uint8_t addr[20];;main.c: 29:     
      +                          uint8_t Addr2[20];;main.c: 31:     message[0]='0';
   472   000F26  0E30               	movlw	48
   473   000F28  0100               	movlb	0	; () banked
   474   000F2A  6F74               	movwf	main@message& (0+255),b
   475   000F2C                     
   476                           ; BSR set to: 0
   477                           ;main.c: 32:     message[1]='1';
   478   000F2C  0E31               	movlw	49
   479   000F2E  6F75               	movwf	(main@message+1)& (0+255),b
   480   000F30                     
   481                           ; BSR set to: 0
   482                           ;main.c: 33:     message[2]='2';
   483   000F30  0E32               	movlw	50
   484   000F32  6F76               	movwf	(main@message+2)& (0+255),b
   485   000F34                     
   486                           ; BSR set to: 0
   487                           ;main.c: 35:     addr[0] = 0x0E;
   488   000F34  0E0E               	movlw	14
   489   000F36  6F88               	movwf	main@addr& (0+255),b
   490   000F38                     
   491                           ; BSR set to: 0
   492                           ;main.c: 36:     addr[1] = 0xCD;
   493   000F38  0ECD               	movlw	205
   494   000F3A  6F89               	movwf	(main@addr+1)& (0+255),b
   495   000F3C                     
   496                           ; BSR set to: 0
   497                           ;main.c: 37:     for (int i = 0; i < 3; i++)
   498   000F3C  0E00               	movlw	0
   499   000F3E  6F9D               	movwf	(main@i+1)& (0+255),b
   500   000F40  0E00               	movlw	0
   501   000F42  6F9C               	movwf	main@i& (0+255),b
   502   000F44                     l3672:
   503                           
   504                           ; BSR set to: 0
   505                           ;main.c: 38:     {;main.c: 39:         addr[i + 2] = message[i];
   506   000F44  519C               	movf	main@i& (0+255),w,b
   507   000F46  0F74               	addlw	low main@message
   508   000F48  6ED9               	movwf	fsr2l,c
   509   000F4A  6ADA               	clrf	fsr2h,c
   510   000F4C  C09C  F016         	movff	main@i,??_main
   511   000F50  0E02               	movlw	2
   512   000F52  2616               	addwf	??_main^0,f,c
   513   000F54  5016               	movf	??_main^0,w,c
   514   000F56  0F88               	addlw	low main@addr
   515   000F58  6EE1               	movwf	fsr1l,c
   516   000F5A  6AE2               	clrf	fsr1h,c
   517   000F5C  CFDF FFE7          	movff	indf2,indf1
   518   000F60                     
   519                           ; BSR set to: 0
   520                           ;main.c: 40:     }
   521   000F60  4B9C               	infsnz	main@i& (0+255),f,b
   522   000F62  2B9D               	incf	(main@i+1)& (0+255),f,b
   523   000F64                     
   524                           ; BSR set to: 0
   525   000F64  BF9D               	btfsc	(main@i+1)& (0+255),7,b
   526   000F66  EFBE  F007         	goto	u1651
   527   000F6A  519D               	movf	(main@i+1)& (0+255),w,b
   528   000F6C  E109               	bnz	u1650
   529   000F6E  0E03               	movlw	3
   530   000F70  5D9C               	subwf	main@i& (0+255),w,b
   531   000F72  A0D8               	btfss	status,0,c
   532   000F74  EFBE  F007         	goto	u1651
   533   000F78  EFC0  F007         	goto	u1650
   534   000F7C                     u1651:
   535   000F7C  EFA2  F007         	goto	l3672
   536   000F80                     u1650:
   537   000F80                     l3678:
   538   000F80  0E50               	movlw	80
   539   000F82  EC5F  F009         	call	_I2C_Open
   540   000F86  06E8               	decf	wreg,f,c
   541   000F88  B4D8               	btfsc	status,2,c
   542   000F8A  EFC9  F007         	goto	u1661
   543   000F8E  EFCB  F007         	goto	u1660
   544   000F92                     u1661:
   545   000F92  EFC0  F007         	goto	l3678
   546   000F96                     u1660:
   547   000F96                     
   548                           ;main.c: 55:         I2C_SetBuffer(addr, 5);
   549   000F96  0E88               	movlw	low main@addr
   550   000F98  6E05               	movwf	I2C_SetBuffer@buffer^0,c
   551   000F9A  6A06               	clrf	(I2C_SetBuffer@buffer+1)^0,c
   552   000F9C  0E00               	movlw	0
   553   000F9E  6E08               	movwf	(I2C_SetBuffer@bufferSize+1)^0,c
   554   000FA0  0E05               	movlw	5
   555   000FA2  6E07               	movwf	I2C_SetBuffer@bufferSize^0,c
   556   000FA4  ECC4  F00B         	call	_I2C_SetBuffer	;wreg free
   557   000FA8                     
   558                           ;main.c: 56:         I2C_MasterOperation(0);
   559   000FA8  0E00               	movlw	0
   560   000FAA  ECBB  F00A         	call	_I2C_MasterOperation
   561   000FAE                     l3684:
   562   000FAE  EC74  F00B         	call	_I2C_Close	;wreg free
   563   000FB2  06E8               	decf	wreg,f,c
   564   000FB4  B4D8               	btfsc	status,2,c
   565   000FB6  EFDF  F007         	goto	u1671
   566   000FBA  EFE1  F007         	goto	u1670
   567   000FBE                     u1671:
   568   000FBE  EFD7  F007         	goto	l3684
   569   000FC2                     u1670:
   570   000FC2                     
   571                           ;main.c: 58:         _delay((unsigned long)((5)*(20000000/4000.0)));
   572   000FC2  0E21               	movlw	33
   573   000FC4  6E16               	movwf	??_main^0,c
   574   000FC6  0E76               	movlw	118
   575   000FC8                     u1727:
   576   000FC8  2EE8               	decfsz	wreg,f,c
   577   000FCA  D7FE               	bra	u1727
   578   000FCC  2E16               	decfsz	??_main^0,f,c
   579   000FCE  D7FC               	bra	u1727
   580   000FD0  D000               	nop2	
   581   000FD2                     l3688:
   582   000FD2  0E50               	movlw	80
   583   000FD4  EC5F  F009         	call	_I2C_Open
   584   000FD8  06E8               	decf	wreg,f,c
   585   000FDA  B4D8               	btfsc	status,2,c
   586   000FDC  EFF2  F007         	goto	u1681
   587   000FE0  EFF4  F007         	goto	u1680
   588   000FE4                     u1681:
   589   000FE4  EFE9  F007         	goto	l3688
   590   000FE8                     u1680:
   591   000FE8                     
   592                           ;main.c: 62:         I2C_SetBuffer(addr, 2);
   593   000FE8  0E88               	movlw	low main@addr
   594   000FEA  6E05               	movwf	I2C_SetBuffer@buffer^0,c
   595   000FEC  6A06               	clrf	(I2C_SetBuffer@buffer+1)^0,c
   596   000FEE  0E00               	movlw	0
   597   000FF0  6E08               	movwf	(I2C_SetBuffer@bufferSize+1)^0,c
   598   000FF2  0E02               	movlw	2
   599   000FF4  6E07               	movwf	I2C_SetBuffer@bufferSize^0,c
   600   000FF6  ECC4  F00B         	call	_I2C_SetBuffer	;wreg free
   601   000FFA                     
   602                           ;main.c: 63:         I2C_MasterOperation(0);
   603   000FFA  0E00               	movlw	0
   604   000FFC  ECBB  F00A         	call	_I2C_MasterOperation
   605   001000                     
   606                           ;main.c: 64:         I2C_SetBuffer(Addr2, 3);
   607   001000  0E60               	movlw	low main@Addr2
   608   001002  6E05               	movwf	I2C_SetBuffer@buffer^0,c
   609   001004  6A06               	clrf	(I2C_SetBuffer@buffer+1)^0,c
   610   001006  0E00               	movlw	0
   611   001008  6E08               	movwf	(I2C_SetBuffer@bufferSize+1)^0,c
   612   00100A  0E03               	movlw	3
   613   00100C  6E07               	movwf	I2C_SetBuffer@bufferSize^0,c
   614   00100E  ECC4  F00B         	call	_I2C_SetBuffer	;wreg free
   615                           
   616                           ;main.c: 65:         I2C_MasterOperation(1);
   617   001012  0E01               	movlw	1
   618   001014  ECBB  F00A         	call	_I2C_MasterOperation
   619   001018                     l3696:
   620   001018  EC74  F00B         	call	_I2C_Close	;wreg free
   621   00101C  06E8               	decf	wreg,f,c
   622   00101E  B4D8               	btfsc	status,2,c
   623   001020  EF14  F008         	goto	u1691
   624   001024  EF16  F008         	goto	u1690
   625   001028                     u1691:
   626   001028  EF0C  F008         	goto	l3696
   627   00102C                     u1690:
   628   00102C                     
   629                           ;main.c: 67:         _delay((unsigned long)((5)*(20000000/4000.0)));
   630   00102C  0E21               	movlw	33
   631   00102E  6E16               	movwf	??_main^0,c
   632   001030  0E76               	movlw	118
   633   001032                     u1737:
   634   001032  2EE8               	decfsz	wreg,f,c
   635   001034  D7FE               	bra	u1737
   636   001036  2E16               	decfsz	??_main^0,f,c
   637   001038  D7FC               	bra	u1737
   638   00103A  D000               	nop2	
   639   00103C                     l3700:
   640   00103C  0E28               	movlw	40
   641   00103E  EC5F  F009         	call	_I2C_Open
   642   001042  06E8               	decf	wreg,f,c
   643   001044  B4D8               	btfsc	status,2,c
   644   001046  EF27  F008         	goto	u1701
   645   00104A  EF29  F008         	goto	u1700
   646   00104E                     u1701:
   647   00104E  EF1E  F008         	goto	l3700
   648   001052                     u1700:
   649   001052                     
   650                           ;main.c: 71:         I2C_SetBuffer(Addr2, 3);
   651   001052  0E60               	movlw	low main@Addr2
   652   001054  6E05               	movwf	I2C_SetBuffer@buffer^0,c
   653   001056  6A06               	clrf	(I2C_SetBuffer@buffer+1)^0,c
   654   001058  0E00               	movlw	0
   655   00105A  6E08               	movwf	(I2C_SetBuffer@bufferSize+1)^0,c
   656   00105C  0E03               	movlw	3
   657   00105E  6E07               	movwf	I2C_SetBuffer@bufferSize^0,c
   658   001060  ECC4  F00B         	call	_I2C_SetBuffer	;wreg free
   659   001064                     
   660                           ;main.c: 72:         I2C_MasterOperation(0);
   661   001064  0E00               	movlw	0
   662   001066  ECBB  F00A         	call	_I2C_MasterOperation
   663   00106A                     l3706:
   664   00106A  EC74  F00B         	call	_I2C_Close	;wreg free
   665   00106E  06E8               	decf	wreg,f,c
   666   001070  B4D8               	btfsc	status,2,c
   667   001072  EF3D  F008         	goto	u1711
   668   001076  EF3F  F008         	goto	u1710
   669   00107A                     u1711:
   670   00107A  EF35  F008         	goto	l3706
   671   00107E                     u1710:
   672   00107E                     
   673                           ;main.c: 74:         _delay((unsigned long)((1000)*(20000000/4000.0)));
   674   00107E  0E1A               	movlw	26
   675   001080  6E17               	movwf	(??_main+1)^0,c
   676   001082  0E5E               	movlw	94
   677   001084  6E16               	movwf	??_main^0,c
   678   001086  0E6E               	movlw	110
   679   001088                     u1747:
   680   001088  2EE8               	decfsz	wreg,f,c
   681   00108A  D7FE               	bra	u1747
   682   00108C  2E16               	decfsz	??_main^0,f,c
   683   00108E  D7FC               	bra	u1747
   684   001090  2E17               	decfsz	(??_main+1)^0,f,c
   685   001092  D7FA               	bra	u1747
   686   001094  D000               	nop2	
   687   001096  EFC0  F007         	goto	l3678
   688   00109A  EF59  F000         	goto	start
   689   00109E                     __end_of_main:
   690                           	callstack 0
   691                           
   692 ;; *************** function _SYSTEM_Initialize *****************
   693 ;; Defined at:
   694 ;;		line 50 in file "mcc_generated_files/mcc.c"
   695 ;; Parameters:    Size  Location     Type
   696 ;;		None
   697 ;; Auto vars:     Size  Location     Type
   698 ;;		None
   699 ;; Return value:  Size  Location     Type
   700 ;;                  1    wreg      void 
   701 ;; Registers used:
   702 ;;		wreg, status,2, status,0, cstack
   703 ;; Tracked objects:
   704 ;;		On entry : 0/0
   705 ;;		On exit  : 0/0
   706 ;;		Unchanged: 0/0
   707 ;; Data sizes:     COMRAM   BANK0   BANK1   BANK2   BANK3   BANK4   BANK5   BANK6   BANK7   BANK8   BANK9  BANK10  BANK1
      +1  BANK12  BANK13  BANK14
   708 ;;      Params:         0       0       0       0       0       0       0       0       0       0       0       0       
      +0       0       0       0
   709 ;;      Locals:         0       0       0       0       0       0       0       0       0       0       0       0       
      +0       0       0       0
   710 ;;      Temps:          0       0       0       0       0       0       0       0       0       0       0       0       
      +0       0       0       0
   711 ;;      Totals:         0       0       0       0       0       0       0       0       0       0       0       0       
      +0       0       0       0
   712 ;;Total ram usage:        0 bytes
   713 ;; Hardware stack levels used: 1
   714 ;; Hardware stack levels required when called: 6
   715 ;; This function calls:
   716 ;;		_EUSART1_Initialize
   717 ;;		_I2C_Initialize
   718 ;;		_INTERRUPT_Initialize
   719 ;;		_OSCILLATOR_Initialize
   720 ;;		_PIN_MANAGER_Initialize
   721 ;; This function is called by:
   722 ;;		_main
   723 ;; This function uses a non-reentrant model
   724 ;;
   725                           
   726                           	psect	text1
   727   001804                     __ptext1:
   728                           	callstack 0
   729   001804                     _SYSTEM_Initialize:
   730                           	callstack 24
   731   001804                     
   732                           ;mcc_generated_files/mcc.c: 53:     INTERRUPT_Initialize();
   733   001804  EC99  F00C         	call	_INTERRUPT_Initialize	;wreg free
   734   001808                     
   735                           ;mcc_generated_files/mcc.c: 54:     I2C_Initialize();
   736   001808  EC0D  F00C         	call	_I2C_Initialize	;wreg free
   737   00180C                     
   738                           ;mcc_generated_files/mcc.c: 55:     PIN_MANAGER_Initialize();
   739   00180C  EC8A  F00B         	call	_PIN_MANAGER_Initialize	;wreg free
   740   001810                     
   741                           ;mcc_generated_files/mcc.c: 56:     OSCILLATOR_Initialize();
   742   001810  EC21  F00C         	call	_OSCILLATOR_Initialize	;wreg free
   743   001814                     
   744                           ;mcc_generated_files/mcc.c: 57:     EUSART1_Initialize();
   745   001814  ECE5  F009         	call	_EUSART1_Initialize	;wreg free
   746   001818  0012               	return		;funcret
   747   00181A                     __end_of_SYSTEM_Initialize:
   748                           	callstack 0
   749                           
   750 ;; *************** function _PIN_MANAGER_Initialize *****************
   751 ;; Defined at:
   752 ;;		line 55 in file "mcc_generated_files/pin_manager.c"
   753 ;; Parameters:    Size  Location     Type
   754 ;;		None
   755 ;; Auto vars:     Size  Location     Type
   756 ;;		None
   757 ;; Return value:  Size  Location     Type
   758 ;;                  1    wreg      void 
   759 ;; Registers used:
   760 ;;		wreg, status,2
   761 ;; Tracked objects:
   762 ;;		On entry : 0/0
   763 ;;		On exit  : 0/0
   764 ;;		Unchanged: 0/0
   765 ;; Data sizes:     COMRAM   BANK0   BANK1   BANK2   BANK3   BANK4   BANK5   BANK6   BANK7   BANK8   BANK9  BANK10  BANK1
      +1  BANK12  BANK13  BANK14
   766 ;;      Params:         0       0       0       0       0       0       0       0       0       0       0       0       
      +0       0       0       0
   767 ;;      Locals:         0       0       0       0       0       0       0       0       0       0       0       0       
      +0       0       0       0
   768 ;;      Temps:          0       0       0       0       0       0       0       0       0       0       0       0       
      +0       0       0       0
   769 ;;      Totals:         0       0       0       0       0       0       0       0       0       0       0       0       
      +0       0       0       0
   770 ;;Total ram usage:        0 bytes
   771 ;; Hardware stack levels used: 1
   772 ;; Hardware stack levels required when called: 4
   773 ;; This function calls:
   774 ;;		Nothing
   775 ;; This function is called by:
   776 ;;		_SYSTEM_Initialize
   777 ;; This function uses a non-reentrant model
   778 ;;
   779                           
   780                           	psect	text2
   781   001714                     __ptext2:
   782                           	callstack 0
   783   001714                     _PIN_MANAGER_Initialize:
   784                           	callstack 25
   785   001714                     
   786                           ;mcc_generated_files/pin_manager.c: 60:     LATA = 0x00;
   787   001714  0E00               	movlw	0
   788   001716  6E89               	movwf	137,c	;volatile
   789                           
   790                           ;mcc_generated_files/pin_manager.c: 61:     LATB = 0x00;
   791   001718  0E00               	movlw	0
   792   00171A  6E8A               	movwf	138,c	;volatile
   793                           
   794                           ;mcc_generated_files/pin_manager.c: 62:     LATC = 0x00;
   795   00171C  0E00               	movlw	0
   796   00171E  6E8B               	movwf	139,c	;volatile
   797                           
   798                           ;mcc_generated_files/pin_manager.c: 67:     TRISA = 0xEF;
   799   001720  0EEF               	movlw	239
   800   001722  6E92               	movwf	146,c	;volatile
   801   001724                     
   802                           ;mcc_generated_files/pin_manager.c: 68:     TRISB = 0xFF;
   803   001724  6893               	setf	147,c	;volatile
   804                           
   805                           ;mcc_generated_files/pin_manager.c: 69:     TRISC = 0xBF;
   806   001726  0EBF               	movlw	191
   807   001728  6E94               	movwf	148,c	;volatile
   808                           
   809                           ;mcc_generated_files/pin_manager.c: 74:     ANCON0 = 0x1F;
   810   00172A  0E1F               	movlw	31
   811   00172C  010F               	movlb	15	; () banked
   812   00172E  6F5D               	movwf	93,b	;volatile
   813                           
   814                           ;mcc_generated_files/pin_manager.c: 75:     ANCON1 = 0x07;
   815   001730  0E07               	movlw	7
   816   001732  6F5C               	movwf	92,b	;volatile
   817                           
   818                           ;mcc_generated_files/pin_manager.c: 80:     WPUB = 0x00;
   819   001734  0E00               	movlw	0
   820   001736  6F5B               	movwf	91,b	;volatile
   821   001738                     
   822                           ; BSR set to: 15
   823                           ;mcc_generated_files/pin_manager.c: 81:     INTCON2bits.nRBPU = 1;
   824   001738  8EF1               	bsf	241,7,c	;volatile
   825   00173A                     
   826                           ; BSR set to: 15
   827   00173A  0012               	return		;funcret
   828   00173C                     __end_of_PIN_MANAGER_Initialize:
   829                           	callstack 0
   830                           
   831 ;; *************** function _OSCILLATOR_Initialize *****************
   832 ;; Defined at:
   833 ;;		line 60 in file "mcc_generated_files/mcc.c"
   834 ;; Parameters:    Size  Location     Type
   835 ;;		None
   836 ;; Auto vars:     Size  Location     Type
   837 ;;		None
   838 ;; Return value:  Size  Location     Type
   839 ;;                  1    wreg      void 
   840 ;; Registers used:
   841 ;;		wreg, status,2
   842 ;; Tracked objects:
   843 ;;		On entry : 0/0
   844 ;;		On exit  : 0/0
   845 ;;		Unchanged: 0/0
   846 ;; Data sizes:     COMRAM   BANK0   BANK1   BANK2   BANK3   BANK4   BANK5   BANK6   BANK7   BANK8   BANK9  BANK10  BANK1
      +1  BANK12  BANK13  BANK14
   847 ;;      Params:         0       0       0       0       0       0       0       0       0       0       0       0       
      +0       0       0       0
   848 ;;      Locals:         0       0       0       0       0       0       0       0       0       0       0       0       
      +0       0       0       0
   849 ;;      Temps:          0       0       0       0       0       0       0       0       0       0       0       0       
      +0       0       0       0
   850 ;;      Totals:         0       0       0       0       0       0       0       0       0       0       0       0       
      +0       0       0       0
   851 ;;Total ram usage:        0 bytes
   852 ;; Hardware stack levels used: 1
   853 ;; Hardware stack levels required when called: 4
   854 ;; This function calls:
   855 ;;		Nothing
   856 ;; This function is called by:
   857 ;;		_SYSTEM_Initialize
   858 ;; This function uses a non-reentrant model
   859 ;;
   860                           
   861                           	psect	text3
   862   001842                     __ptext3:
   863                           	callstack 0
   864   001842                     _OSCILLATOR_Initialize:
   865                           	callstack 25
   866   001842                     
   867                           ;mcc_generated_files/mcc.c: 63:     OSCCON = 0x60;
   868   001842  0E60               	movlw	96
   869   001844  6ED3               	movwf	211,c	;volatile
   870                           
   871                           ;mcc_generated_files/mcc.c: 65:     OSCCON2 = 0x00;
   872   001846  0E00               	movlw	0
   873   001848  6ED2               	movwf	210,c	;volatile
   874                           
   875                           ;mcc_generated_files/mcc.c: 67:     OSCTUNE = 0x00;
   876   00184A  0E00               	movlw	0
   877   00184C  6E9B               	movwf	155,c	;volatile
   878                           
   879                           ;mcc_generated_files/mcc.c: 69:     REFOCON = 0x00;
   880   00184E  0E00               	movlw	0
   881   001850  6E9A               	movwf	154,c	;volatile
   882   001852  0012               	return		;funcret
   883   001854                     __end_of_OSCILLATOR_Initialize:
   884                           	callstack 0
   885                           
   886 ;; *************** function _INTERRUPT_Initialize *****************
   887 ;; Defined at:
   888 ;;		line 52 in file "mcc_generated_files/interrupt_manager.c"
   889 ;; Parameters:    Size  Location     Type
   890 ;;		None
   891 ;; Auto vars:     Size  Location     Type
   892 ;;		None
   893 ;; Return value:  Size  Location     Type
   894 ;;                  1    wreg      void 
   895 ;; Registers used:
   896 ;;		None
   897 ;; Tracked objects:
   898 ;;		On entry : 0/0
   899 ;;		On exit  : 0/0
   900 ;;		Unchanged: 0/0
   901 ;; Data sizes:     COMRAM   BANK0   BANK1   BANK2   BANK3   BANK4   BANK5   BANK6   BANK7   BANK8   BANK9  BANK10  BANK1
      +1  BANK12  BANK13  BANK14
   902 ;;      Params:         0       0       0       0       0       0       0       0       0       0       0       0       
      +0       0       0       0
   903 ;;      Locals:         0       0       0       0       0       0       0       0       0       0       0       0       
      +0       0       0       0
   904 ;;      Temps:          0       0       0       0       0       0       0       0       0       0       0       0       
      +0       0       0       0
   905 ;;      Totals:         0       0       0       0       0       0       0       0       0       0       0       0       
      +0       0       0       0
   906 ;;Total ram usage:        0 bytes
   907 ;; Hardware stack levels used: 1
   908 ;; Hardware stack levels required when called: 4
   909 ;; This function calls:
   910 ;;		Nothing
   911 ;; This function is called by:
   912 ;;		_SYSTEM_Initialize
   913 ;; This function uses a non-reentrant model
   914 ;;
   915                           
   916                           	psect	text4
   917   001932                     __ptext4:
   918                           	callstack 0
   919   001932                     _INTERRUPT_Initialize:
   920                           	callstack 25
   921   001932                     
   922                           ;mcc_generated_files/interrupt_manager.c: 55:     RCONbits.IPEN = 0;
   923   001932  9ED0               	bcf	208,7,c	;volatile
   924   001934  0012               	return		;funcret
   925   001936                     __end_of_INTERRUPT_Initialize:
   926                           	callstack 0
   927                           
   928 ;; *************** function _I2C_Initialize *****************
   929 ;; Defined at:
   930 ;;		line 167 in file "mcc_generated_files/i2c_master.c"
   931 ;; Parameters:    Size  Location     Type
   932 ;;		None
   933 ;; Auto vars:     Size  Location     Type
   934 ;;		None
   935 ;; Return value:  Size  Location     Type
   936 ;;                  1    wreg      void 
   937 ;; Registers used:
   938 ;;		wreg, status,2
   939 ;; Tracked objects:
   940 ;;		On entry : 0/0
   941 ;;		On exit  : 0/0
   942 ;;		Unchanged: 0/0
   943 ;; Data sizes:     COMRAM   BANK0   BANK1   BANK2   BANK3   BANK4   BANK5   BANK6   BANK7   BANK8   BANK9  BANK10  BANK1
      +1  BANK12  BANK13  BANK14
   944 ;;      Params:         0       0       0       0       0       0       0       0       0       0       0       0       
      +0       0       0       0
   945 ;;      Locals:         0       0       0       0       0       0       0       0       0       0       0       0       
      +0       0       0       0
   946 ;;      Temps:          0       0       0       0       0       0       0       0       0       0       0       0       
      +0       0       0       0
   947 ;;      Totals:         0       0       0       0       0       0       0       0       0       0       0       0       
      +0       0       0       0
   948 ;;Total ram usage:        0 bytes
   949 ;; Hardware stack levels used: 1
   950 ;; Hardware stack levels required when called: 4
   951 ;; This function calls:
   952 ;;		Nothing
   953 ;; This function is called by:
   954 ;;		_SYSTEM_Initialize
   955 ;; This function uses a non-reentrant model
   956 ;;
   957                           
   958                           	psect	text5
   959   00181A                     __ptext5:
   960                           	callstack 0
   961   00181A                     _I2C_Initialize:
   962                           	callstack 25
   963   00181A                     
   964                           ;mcc_generated_files/i2c_master.c: 169:     SSPSTAT = 0x00;
   965   00181A  0E00               	movlw	0
   966   00181C  6EC7               	movwf	199,c	;volatile
   967                           
   968                           ;mcc_generated_files/i2c_master.c: 170:     SSPCON1 = 0x08;
   969   00181E  0E08               	movlw	8
   970   001820  6EC6               	movwf	198,c	;volatile
   971                           
   972                           ;mcc_generated_files/i2c_master.c: 171:     SSPCON2 = 0x00;
   973   001822  0E00               	movlw	0
   974   001824  6EC5               	movwf	197,c	;volatile
   975                           
   976                           ;mcc_generated_files/i2c_master.c: 172:     SSPADD = 0x63;
   977   001826  0E63               	movlw	99
   978   001828  6EC8               	movwf	200,c	;volatile
   979   00182A                     
   980                           ;mcc_generated_files/i2c_master.c: 173:     SSPCON1bits.SSPEN = 0;
   981   00182A  9AC6               	bcf	198,5,c	;volatile
   982   00182C  0012               	return		;funcret
   983   00182E                     __end_of_I2C_Initialize:
   984                           	callstack 0
   985                           
   986 ;; *************** function _EUSART1_Initialize *****************
   987 ;; Defined at:
   988 ;;		line 88 in file "mcc_generated_files/eusart1.c"
   989 ;; Parameters:    Size  Location     Type
   990 ;;		None
   991 ;; Auto vars:     Size  Location     Type
   992 ;;		None
   993 ;; Return value:  Size  Location     Type
   994 ;;                  1    wreg      void 
   995 ;; Registers used:
   996 ;;		wreg, status,2, status,0, cstack
   997 ;; Tracked objects:
   998 ;;		On entry : 0/0
   999 ;;		On exit  : 0/0
  1000 ;;		Unchanged: 0/0
  1001 ;; Data sizes:     COMRAM   BANK0   BANK1   BANK2   BANK3   BANK4   BANK5   BANK6   BANK7   BANK8   BANK9  BANK10  BANK1
      +1  BANK12  BANK13  BANK14
  1002 ;;      Params:         0       0       0       0       0       0       0       0       0       0       0       0       
      +0       0       0       0
  1003 ;;      Locals:         0       0       0       0       0       0       0       0       0       0       0       0       
      +0       0       0       0
  1004 ;;      Temps:          0       0       0       0       0       0       0       0       0       0       0       0       
      +0       0       0       0
  1005 ;;      Totals:         0       0       0       0       0       0       0       0       0       0       0       0       
      +0       0       0       0
  1006 ;;Total ram usage:        0 bytes
  1007 ;; Hardware stack levels used: 1
  1008 ;; Hardware stack levels required when called: 5
  1009 ;; This function calls:
  1010 ;;		_EUSART1_SetErrorHandler
  1011 ;;		_EUSART1_SetFramingErrorHandler
  1012 ;;		_EUSART1_SetOverrunErrorHandler
  1013 ;;		_EUSART1_SetRxInterruptHandler
  1014 ;;		_EUSART1_SetTxInterruptHandler
  1015 ;; This function is called by:
  1016 ;;		_SYSTEM_Initialize
  1017 ;; This function uses a non-reentrant model
  1018 ;;
  1019                           
  1020                           	psect	text6
  1021   0013CA                     __ptext6:
  1022                           	callstack 0
  1023   0013CA                     _EUSART1_Initialize:
  1024                           	callstack 24
  1025   0013CA                     
  1026                           ;mcc_generated_files/eusart1.c: 91:     PIE1bits.RC1IE = 0;
  1027   0013CA  9A9D               	bcf	157,5,c	;volatile
  1028   0013CC                     
  1029                           ;mcc_generated_files/eusart1.c: 92:     EUSART1_SetRxInterruptHandler(EUSART1_Receive_IS
      +                          R);
  1030   0013CC  0E66               	movlw	low _EUSART1_Receive_ISR
  1031   0013CE  6E05               	movwf	EUSART1_SetRxInterruptHandler@interruptHandler^0,c
  1032   0013D0  0E11               	movlw	high _EUSART1_Receive_ISR
  1033   0013D2  6E06               	movwf	(EUSART1_SetRxInterruptHandler@interruptHandler+1)^0,c
  1034   0013D4  EC59  F00C         	call	_EUSART1_SetRxInterruptHandler	;wreg free
  1035   0013D8                     
  1036                           ;mcc_generated_files/eusart1.c: 93:     PIE1bits.TX1IE = 0;
  1037   0013D8  989D               	bcf	157,4,c	;volatile
  1038                           
  1039                           ;mcc_generated_files/eusart1.c: 94:     EUSART1_SetTxInterruptHandler(EUSART1_Transmit_I
      +                          SR);
  1040   0013DA  0EFC               	movlw	low _EUSART1_Transmit_ISR
  1041   0013DC  6E05               	movwf	EUSART1_SetTxInterruptHandler@interruptHandler^0,c
  1042   0013DE  0E15               	movlw	high _EUSART1_Transmit_ISR
  1043   0013E0  6E06               	movwf	(EUSART1_SetTxInterruptHandler@interruptHandler+1)^0,c
  1044   0013E2  EC54  F00C         	call	_EUSART1_SetTxInterruptHandler	;wreg free
  1045   0013E6                     
  1046                           ;mcc_generated_files/eusart1.c: 98:     BAUDCON1 = 0x08;
  1047   0013E6  0E08               	movlw	8
  1048   0013E8  6EA7               	movwf	167,c	;volatile
  1049   0013EA                     
  1050                           ;mcc_generated_files/eusart1.c: 101:     RCSTA1 = 0x90;
  1051   0013EA  0E90               	movlw	144
  1052   0013EC  6EAB               	movwf	171,c	;volatile
  1053   0013EE                     
  1054                           ;mcc_generated_files/eusart1.c: 104:     TXSTA1 = 0x24;
  1055   0013EE  0E24               	movlw	36
  1056   0013F0  6EAC               	movwf	172,c	;volatile
  1057   0013F2                     
  1058                           ;mcc_generated_files/eusart1.c: 107:     SPBRG1 = 0x08;
  1059   0013F2  0E08               	movlw	8
  1060   0013F4  6EAF               	movwf	175,c	;volatile
  1061   0013F6                     
  1062                           ;mcc_generated_files/eusart1.c: 110:     SPBRGH1 = 0x02;
  1063   0013F6  0E02               	movlw	2
  1064   0013F8  6E7D               	movwf	125,c	;volatile
  1065   0013FA                     
  1066                           ;mcc_generated_files/eusart1.c: 113:     EUSART1_SetFramingErrorHandler(EUSART1_DefaultF
      +                          ramingErrorHandler);
  1067   0013FA  0E62               	movlw	low _EUSART1_DefaultFramingErrorHandler
  1068   0013FC  6E05               	movwf	EUSART1_SetFramingErrorHandler@interruptHandler^0,c
  1069   0013FE  0E19               	movlw	high _EUSART1_DefaultFramingErrorHandler
  1070   001400  6E06               	movwf	(EUSART1_SetFramingErrorHandler@interruptHandler+1)^0,c
  1071   001402  EC63  F00C         	call	_EUSART1_SetFramingErrorHandler	;wreg free
  1072   001406                     
  1073                           ;mcc_generated_files/eusart1.c: 114:     EUSART1_SetOverrunErrorHandler(EUSART1_DefaultO
      +                          verrunErrorHandler);
  1074   001406  0E26               	movlw	low _EUSART1_DefaultOverrunErrorHandler
  1075   001408  6E05               	movwf	EUSART1_SetOverrunErrorHandler@interruptHandler^0,c
  1076   00140A  0E19               	movlw	high _EUSART1_DefaultOverrunErrorHandler
  1077   00140C  6E06               	movwf	(EUSART1_SetOverrunErrorHandler@interruptHandler+1)^0,c
  1078   00140E  EC5E  F00C         	call	_EUSART1_SetOverrunErrorHandler	;wreg free
  1079   001412                     
  1080                           ;mcc_generated_files/eusart1.c: 115:     EUSART1_SetErrorHandler(EUSART1_DefaultErrorHan
      +                          dler);
  1081   001412  0E2C               	movlw	low _EUSART1_DefaultErrorHandler
  1082   001414  6E05               	movwf	EUSART1_SetErrorHandler@interruptHandler^0,c
  1083   001416  0E19               	movlw	high _EUSART1_DefaultErrorHandler
  1084   001418  6E06               	movwf	(EUSART1_SetErrorHandler@interruptHandler+1)^0,c
  1085   00141A  EC68  F00C         	call	_EUSART1_SetErrorHandler	;wreg free
  1086                           
  1087                           ;mcc_generated_files/eusart1.c: 117:     eusart1RxLastError.status = 0;
  1088   00141E  0E00               	movlw	0
  1089   001420  6E18               	movwf	_eusart1RxLastError^0,c	;volatile
  1090                           
  1091                           ;mcc_generated_files/eusart1.c: 120:     eusart1TxHead = 0;
  1092   001422  0E00               	movlw	0
  1093   001424  6E1E               	movwf	_eusart1TxHead^0,c	;volatile
  1094                           
  1095                           ;mcc_generated_files/eusart1.c: 121:     eusart1TxTail = 0;
  1096   001426  0E00               	movlw	0
  1097   001428  6E1D               	movwf	_eusart1TxTail^0,c	;volatile
  1098                           
  1099                           ;mcc_generated_files/eusart1.c: 122:     eusart1TxBufferRemaining = sizeof(eusart1TxBuff
      +                          er);
  1100   00142A  0E08               	movlw	8
  1101   00142C  6E1C               	movwf	_eusart1TxBufferRemaining^0,c	;volatile
  1102                           
  1103                           ;mcc_generated_files/eusart1.c: 124:     eusart1RxHead = 0;
  1104   00142E  0E00               	movlw	0
  1105   001430  6E1B               	movwf	_eusart1RxHead^0,c	;volatile
  1106                           
  1107                           ;mcc_generated_files/eusart1.c: 125:     eusart1RxTail = 0;
  1108   001432  0E00               	movlw	0
  1109   001434  6E1A               	movwf	_eusart1RxTail^0,c	;volatile
  1110                           
  1111                           ;mcc_generated_files/eusart1.c: 126:     eusart1RxCount = 0;
  1112   001436  0E00               	movlw	0
  1113   001438  6E19               	movwf	_eusart1RxCount^0,c	;volatile
  1114   00143A                     
  1115                           ;mcc_generated_files/eusart1.c: 129:     PIE1bits.RC1IE = 1;
  1116   00143A  8A9D               	bsf	157,5,c	;volatile
  1117   00143C  0012               	return		;funcret
  1118   00143E                     __end_of_EUSART1_Initialize:
  1119                           	callstack 0
  1120                           
  1121 ;; *************** function _EUSART1_SetTxInterruptHandler *****************
  1122 ;; Defined at:
  1123 ;;		line 285 in file "mcc_generated_files/eusart1.c"
  1124 ;; Parameters:    Size  Location     Type
  1125 ;;  interruptHan    2    4[COMRAM] PTR FTN()void 
  1126 ;;		 -> EUSART1_Transmit_ISR(1), 
  1127 ;; Auto vars:     Size  Location     Type
  1128 ;;		None
  1129 ;; Return value:  Size  Location     Type
  1130 ;;                  1    wreg      void 
  1131 ;; Registers used:
  1132 ;;		wreg, status,2, status,0
  1133 ;; Tracked objects:
  1134 ;;		On entry : 0/0
  1135 ;;		On exit  : 0/0
  1136 ;;		Unchanged: 0/0
  1137 ;; Data sizes:     COMRAM   BANK0   BANK1   BANK2   BANK3   BANK4   BANK5   BANK6   BANK7   BANK8   BANK9  BANK10  BANK1
      +1  BANK12  BANK13  BANK14
  1138 ;;      Params:         2       0       0       0       0       0       0       0       0       0       0       0       
      +0       0       0       0
  1139 ;;      Locals:         0       0       0       0       0       0       0       0       0       0       0       0       
      +0       0       0       0
  1140 ;;      Temps:          0       0       0       0       0       0       0       0       0       0       0       0       
      +0       0       0       0
  1141 ;;      Totals:         2       0       0       0       0       0       0       0       0       0       0       0       
      +0       0       0       0
  1142 ;;Total ram usage:        2 bytes
  1143 ;; Hardware stack levels used: 1
  1144 ;; Hardware stack levels required when called: 4
  1145 ;; This function calls:
  1146 ;;		Nothing
  1147 ;; This function is called by:
  1148 ;;		_EUSART1_Initialize
  1149 ;; This function uses a non-reentrant model
  1150 ;;
  1151                           
  1152                           	psect	text7
  1153   0018A8                     __ptext7:
  1154                           	callstack 0
  1155   0018A8                     _EUSART1_SetTxInterruptHandler:
  1156                           	callstack 24
  1157   0018A8                     
  1158                           ;mcc_generated_files/eusart1.c: 286:     EUSART1_TxDefaultInterruptHandler = interruptHa
      +                          ndler;
  1159   0018A8  C005  F01F         	movff	EUSART1_SetTxInterruptHandler@interruptHandler,_EUSART1_TxDefaultInterruptHandler
  1160   0018AC  C006  F020         	movff	EUSART1_SetTxInterruptHandler@interruptHandler+1,_EUSART1_TxDefaultInterruptHandl
      +                          er+1
  1161   0018B0  0012               	return		;funcret
  1162   0018B2                     __end_of_EUSART1_SetTxInterruptHandler:
  1163                           	callstack 0
  1164                           
  1165 ;; *************** function _EUSART1_SetRxInterruptHandler *****************
  1166 ;; Defined at:
  1167 ;;		line 289 in file "mcc_generated_files/eusart1.c"
  1168 ;; Parameters:    Size  Location     Type
  1169 ;;  interruptHan    2    4[COMRAM] PTR FTN()void 
  1170 ;;		 -> EUSART1_Receive_ISR(1), 
  1171 ;; Auto vars:     Size  Location     Type
  1172 ;;		None
  1173 ;; Return value:  Size  Location     Type
  1174 ;;                  1    wreg      void 
  1175 ;; Registers used:
  1176 ;;		wreg, status,2, status,0
  1177 ;; Tracked objects:
  1178 ;;		On entry : 0/0
  1179 ;;		On exit  : 0/0
  1180 ;;		Unchanged: 0/0
  1181 ;; Data sizes:     COMRAM   BANK0   BANK1   BANK2   BANK3   BANK4   BANK5   BANK6   BANK7   BANK8   BANK9  BANK10  BANK1
      +1  BANK12  BANK13  BANK14
  1182 ;;      Params:         2       0       0       0       0       0       0       0       0       0       0       0       
      +0       0       0       0
  1183 ;;      Locals:         0       0       0       0       0       0       0       0       0       0       0       0       
      +0       0       0       0
  1184 ;;      Temps:          0       0       0       0       0       0       0       0       0       0       0       0       
      +0       0       0       0
  1185 ;;      Totals:         2       0       0       0       0       0       0       0       0       0       0       0       
      +0       0       0       0
  1186 ;;Total ram usage:        2 bytes
  1187 ;; Hardware stack levels used: 1
  1188 ;; Hardware stack levels required when called: 4
  1189 ;; This function calls:
  1190 ;;		Nothing
  1191 ;; This function is called by:
  1192 ;;		_EUSART1_Initialize
  1193 ;; This function uses a non-reentrant model
  1194 ;;
  1195                           
  1196                           	psect	text8
  1197   0018B2                     __ptext8:
  1198                           	callstack 0
  1199   0018B2                     _EUSART1_SetRxInterruptHandler:
  1200                           	callstack 24
  1201   0018B2                     
  1202                           ;mcc_generated_files/eusart1.c: 290:     EUSART1_RxDefaultInterruptHandler = interruptHa
      +                          ndler;
  1203   0018B2  C005  F0E0         	movff	EUSART1_SetRxInterruptHandler@interruptHandler,_EUSART1_RxDefaultInterruptHandler
  1204   0018B6  C006  F0E1         	movff	EUSART1_SetRxInterruptHandler@interruptHandler+1,_EUSART1_RxDefaultInterruptHandl
      +                          er+1
  1205   0018BA  0012               	return		;funcret
  1206   0018BC                     __end_of_EUSART1_SetRxInterruptHandler:
  1207                           	callstack 0
  1208                           
  1209 ;; *************** function _EUSART1_SetOverrunErrorHandler *****************
  1210 ;; Defined at:
  1211 ;;		line 277 in file "mcc_generated_files/eusart1.c"
  1212 ;; Parameters:    Size  Location     Type
  1213 ;;  interruptHan    2    4[COMRAM] PTR FTN()void 
  1214 ;;		 -> EUSART1_DefaultOverrunErrorHandler(1), 
  1215 ;; Auto vars:     Size  Location     Type
  1216 ;;		None
  1217 ;; Return value:  Size  Location     Type
  1218 ;;                  1    wreg      void 
  1219 ;; Registers used:
  1220 ;;		wreg, status,2, status,0
  1221 ;; Tracked objects:
  1222 ;;		On entry : 0/0
  1223 ;;		On exit  : 0/0
  1224 ;;		Unchanged: 0/0
  1225 ;; Data sizes:     COMRAM   BANK0   BANK1   BANK2   BANK3   BANK4   BANK5   BANK6   BANK7   BANK8   BANK9  BANK10  BANK1
      +1  BANK12  BANK13  BANK14
  1226 ;;      Params:         2       0       0       0       0       0       0       0       0       0       0       0       
      +0       0       0       0
  1227 ;;      Locals:         0       0       0       0       0       0       0       0       0       0       0       0       
      +0       0       0       0
  1228 ;;      Temps:          0       0       0       0       0       0       0       0       0       0       0       0       
      +0       0       0       0
  1229 ;;      Totals:         2       0       0       0       0       0       0       0       0       0       0       0       
      +0       0       0       0
  1230 ;;Total ram usage:        2 bytes
  1231 ;; Hardware stack levels used: 1
  1232 ;; Hardware stack levels required when called: 4
  1233 ;; This function calls:
  1234 ;;		Nothing
  1235 ;; This function is called by:
  1236 ;;		_EUSART1_Initialize
  1237 ;; This function uses a non-reentrant model
  1238 ;;
  1239                           
  1240                           	psect	text9
  1241   0018BC                     __ptext9:
  1242                           	callstack 0
  1243   0018BC                     _EUSART1_SetOverrunErrorHandler:
  1244                           	callstack 24
  1245   0018BC                     
  1246                           ;mcc_generated_files/eusart1.c: 278:     EUSART1_OverrunErrorHandler = interruptHandler;
  1247   0018BC  C005  F0DC         	movff	EUSART1_SetOverrunErrorHandler@interruptHandler,_EUSART1_OverrunErrorHandler
  1248   0018C0  C006  F0DD         	movff	EUSART1_SetOverrunErrorHandler@interruptHandler+1,_EUSART1_OverrunErrorHandler+1
  1249   0018C4  0012               	return		;funcret
  1250   0018C6                     __end_of_EUSART1_SetOverrunErrorHandler:
  1251                           	callstack 0
  1252                           
  1253 ;; *************** function _EUSART1_SetFramingErrorHandler *****************
  1254 ;; Defined at:
  1255 ;;		line 273 in file "mcc_generated_files/eusart1.c"
  1256 ;; Parameters:    Size  Location     Type
  1257 ;;  interruptHan    2    4[COMRAM] PTR FTN()void 
  1258 ;;		 -> EUSART1_DefaultFramingErrorHandler(1), 
  1259 ;; Auto vars:     Size  Location     Type
  1260 ;;		None
  1261 ;; Return value:  Size  Location     Type
  1262 ;;                  1    wreg      void 
  1263 ;; Registers used:
  1264 ;;		wreg, status,2, status,0
  1265 ;; Tracked objects:
  1266 ;;		On entry : 0/0
  1267 ;;		On exit  : 0/0
  1268 ;;		Unchanged: 0/0
  1269 ;; Data sizes:     COMRAM   BANK0   BANK1   BANK2   BANK3   BANK4   BANK5   BANK6   BANK7   BANK8   BANK9  BANK10  BANK1
      +1  BANK12  BANK13  BANK14
  1270 ;;      Params:         2       0       0       0       0       0       0       0       0       0       0       0       
      +0       0       0       0
  1271 ;;      Locals:         0       0       0       0       0       0       0       0       0       0       0       0       
      +0       0       0       0
  1272 ;;      Temps:          0       0       0       0       0       0       0       0       0       0       0       0       
      +0       0       0       0
  1273 ;;      Totals:         2       0       0       0       0       0       0       0       0       0       0       0       
      +0       0       0       0
  1274 ;;Total ram usage:        2 bytes
  1275 ;; Hardware stack levels used: 1
  1276 ;; Hardware stack levels required when called: 4
  1277 ;; This function calls:
  1278 ;;		Nothing
  1279 ;; This function is called by:
  1280 ;;		_EUSART1_Initialize
  1281 ;; This function uses a non-reentrant model
  1282 ;;
  1283                           
  1284                           	psect	text10
  1285   0018C6                     __ptext10:
  1286                           	callstack 0
  1287   0018C6                     _EUSART1_SetFramingErrorHandler:
  1288                           	callstack 24
  1289   0018C6                     
  1290                           ;mcc_generated_files/eusart1.c: 274:     EUSART1_FramingErrorHandler = interruptHandler;
  1291   0018C6  C005  F0DE         	movff	EUSART1_SetFramingErrorHandler@interruptHandler,_EUSART1_FramingErrorHandler
  1292   0018CA  C006  F0DF         	movff	EUSART1_SetFramingErrorHandler@interruptHandler+1,_EUSART1_FramingErrorHandler+1
  1293   0018CE  0012               	return		;funcret
  1294   0018D0                     __end_of_EUSART1_SetFramingErrorHandler:
  1295                           	callstack 0
  1296                           
  1297 ;; *************** function _EUSART1_SetErrorHandler *****************
  1298 ;; Defined at:
  1299 ;;		line 281 in file "mcc_generated_files/eusart1.c"
  1300 ;; Parameters:    Size  Location     Type
  1301 ;;  interruptHan    2    4[COMRAM] PTR FTN()void 
  1302 ;;		 -> EUSART1_DefaultErrorHandler(1), 
  1303 ;; Auto vars:     Size  Location     Type
  1304 ;;		None
  1305 ;; Return value:  Size  Location     Type
  1306 ;;                  1    wreg      void 
  1307 ;; Registers used:
  1308 ;;		wreg, status,2, status,0
  1309 ;; Tracked objects:
  1310 ;;		On entry : 0/0
  1311 ;;		On exit  : 0/0
  1312 ;;		Unchanged: 0/0
  1313 ;; Data sizes:     COMRAM   BANK0   BANK1   BANK2   BANK3   BANK4   BANK5   BANK6   BANK7   BANK8   BANK9  BANK10  BANK1
      +1  BANK12  BANK13  BANK14
  1314 ;;      Params:         2       0       0       0       0       0       0       0       0       0       0       0       
      +0       0       0       0
  1315 ;;      Locals:         0       0       0       0       0       0       0       0       0       0       0       0       
      +0       0       0       0
  1316 ;;      Temps:          0       0       0       0       0       0       0       0       0       0       0       0       
      +0       0       0       0
  1317 ;;      Totals:         2       0       0       0       0       0       0       0       0       0       0       0       
      +0       0       0       0
  1318 ;;Total ram usage:        2 bytes
  1319 ;; Hardware stack levels used: 1
  1320 ;; Hardware stack levels required when called: 4
  1321 ;; This function calls:
  1322 ;;		Nothing
  1323 ;; This function is called by:
  1324 ;;		_EUSART1_Initialize
  1325 ;; This function uses a non-reentrant model
  1326 ;;
  1327                           
  1328                           	psect	text11
  1329   0018D0                     __ptext11:
  1330                           	callstack 0
  1331   0018D0                     _EUSART1_SetErrorHandler:
  1332                           	callstack 24
  1333   0018D0                     
  1334                           ;mcc_generated_files/eusart1.c: 282:     EUSART1_ErrorHandler = interruptHandler;
  1335   0018D0  C005  F0DA         	movff	EUSART1_SetErrorHandler@interruptHandler,_EUSART1_ErrorHandler
  1336   0018D4  C006  F0DB         	movff	EUSART1_SetErrorHandler@interruptHandler+1,_EUSART1_ErrorHandler+1
  1337   0018D8  0012               	return		;funcret
  1338   0018DA                     __end_of_EUSART1_SetErrorHandler:
  1339                           	callstack 0
  1340                           
  1341 ;; *************** function _I2C_Open *****************
  1342 ;; Defined at:
  1343 ;;		line 176 in file "mcc_generated_files/i2c_master.c"
  1344 ;; Parameters:    Size  Location     Type
  1345 ;;  address         1    wreg     unsigned char 
  1346 ;; Auto vars:     Size  Location     Type
  1347 ;;  address         1    4[COMRAM] unsigned char 
  1348 ;;  returnValue     1    5[COMRAM] enum E358
  1349 ;; Return value:  Size  Location     Type
  1350 ;;                  1    wreg      enum E358
  1351 ;; Registers used:
  1352 ;;		wreg, status,2, status,0, cstack
  1353 ;; Tracked objects:
  1354 ;;		On entry : 0/0
  1355 ;;		On exit  : 0/0
  1356 ;;		Unchanged: 0/0
  1357 ;; Data sizes:     COMRAM   BANK0   BANK1   BANK2   BANK3   BANK4   BANK5   BANK6   BANK7   BANK8   BANK9  BANK10  BANK1
      +1  BANK12  BANK13  BANK14
  1358 ;;      Params:         0       0       0       0       0       0       0       0       0       0       0       0       
      +0       0       0       0
  1359 ;;      Locals:         2       0       0       0       0       0       0       0       0       0       0       0       
      +0       0       0       0
  1360 ;;      Temps:          0       0       0       0       0       0       0       0       0       0       0       0       
      +0       0       0       0
  1361 ;;      Totals:         2       0       0       0       0       0       0       0       0       0       0       0       
      +0       0       0       0
  1362 ;;Total ram usage:        2 bytes
  1363 ;; Hardware stack levels used: 1
  1364 ;; Hardware stack levels required when called: 5
  1365 ;; This function calls:
  1366 ;;		_I2C_MasterClearIrq
  1367 ;;		_I2C_MasterOpen
  1368 ;; This function is called by:
  1369 ;;		_main
  1370 ;;		_I2C_Read1ByteRegister
  1371 ;;		_I2C_Read2ByteRegister
  1372 ;;		_I2C_Write1ByteRegister
  1373 ;;		_I2C_Write2ByteRegister
  1374 ;;		_I2C_WriteNBytes
  1375 ;;		_I2C_ReadNBytes
  1376 ;;		_I2C_ReadDataBlock
  1377 ;; This function uses a non-reentrant model
  1378 ;;
  1379                           
  1380                           	psect	text12
  1381   0012BE                     __ptext12:
  1382                           	callstack 0
  1383   0012BE                     _I2C_Open:
  1384                           	callstack 25
  1385                           
  1386                           ;incstack = 0
  1387                           ;I2C_Open@address stored from wreg
  1388   0012BE  6E05               	movwf	I2C_Open@address^0,c
  1389   0012C0                     
  1390                           ;mcc_generated_files/i2c_master.c: 176: i2c_error_t I2C_Open(i2c_address_t address);mcc_
      +                          generated_files/i2c_master.c: 177: {;mcc_generated_files/i2c_master.c: 178:     i2c_erro
      +                          r_t returnValue = I2C_BUSY;
  1391   0012C0  0E01               	movlw	1
  1392   0012C2  6E06               	movwf	I2C_Open@returnValue^0,c
  1393   0012C4                     
  1394                           ;mcc_generated_files/i2c_master.c: 180:     if(!I2C_Status.inUse)
  1395   0012C4  0100               	movlb	0	; () banked
  1396   0012C6  B5C1               	btfsc	(_I2C_Status+35)& (0+255),2,b
  1397   0012C8  EF68  F009         	goto	u1451
  1398   0012CC  EF6A  F009         	goto	u1450
  1399   0012D0                     u1451:
  1400   0012D0  EFA4  F009         	goto	l3466
  1401   0012D4                     u1450:
  1402   0012D4                     
  1403                           ; BSR set to: 0
  1404                           ;mcc_generated_files/i2c_master.c: 181:     {;mcc_generated_files/i2c_master.c: 182:    
      +                               I2C_Status.address = address;
  1405   0012D4  C005  F0BA         	movff	I2C_Open@address,_I2C_Status+28
  1406   0012D8                     
  1407                           ; BSR set to: 0
  1408                           ;mcc_generated_files/i2c_master.c: 183:         I2C_Status.busy = 0;
  1409   0012D8  93C1               	bcf	(_I2C_Status+35)& (0+255),1,b
  1410   0012DA                     
  1411                           ; BSR set to: 0
  1412                           ;mcc_generated_files/i2c_master.c: 184:         I2C_Status.inUse = 1;
  1413   0012DA  85C1               	bsf	(_I2C_Status+35)& (0+255),2,b
  1414   0012DC                     
  1415                           ; BSR set to: 0
  1416                           ;mcc_generated_files/i2c_master.c: 185:         I2C_Status.addressNackCheck = 0;
  1417   0012DC  91C1               	bcf	(_I2C_Status+35)& (0+255),0,b
  1418   0012DE                     
  1419                           ; BSR set to: 0
  1420                           ;mcc_generated_files/i2c_master.c: 186:         I2C_Status.state = I2C_RESET;
  1421   0012DE  0E0E               	movlw	14
  1422   0012E0  6FBF               	movwf	(_I2C_Status+33)& (0+255),b
  1423   0012E2                     
  1424                           ; BSR set to: 0
  1425                           ;mcc_generated_files/i2c_master.c: 187:         I2C_Status.time_out_value = 500;
  1426   0012E2  0E01               	movlw	1
  1427   0012E4  6FB9               	movwf	(_I2C_Status+27)& (0+255),b
  1428   0012E6  0EF4               	movlw	244
  1429   0012E8  6FB8               	movwf	(_I2C_Status+26)& (0+255),b
  1430   0012EA                     
  1431                           ; BSR set to: 0
  1432                           ;mcc_generated_files/i2c_master.c: 188:         I2C_Status.bufferFree = 1;
  1433   0012EA  87C1               	bsf	(_I2C_Status+35)& (0+255),3,b
  1434   0012EC                     
  1435                           ; BSR set to: 0
  1436                           ;mcc_generated_files/i2c_master.c: 191:         I2C_Status.callbackTable[I2C_DATA_COMPLE
      +                          TE]=I2C_CallbackReturnStop;
  1437   0012EC  0E46               	movlw	low _I2C_CallbackReturnStop
  1438   0012EE  6F9E               	movwf	_I2C_Status& (0+255),b
  1439   0012F0  0E19               	movlw	high _I2C_CallbackReturnStop
  1440   0012F2  6F9F               	movwf	(_I2C_Status+1)& (0+255),b
  1441   0012F4                     
  1442                           ; BSR set to: 0
  1443                           ;mcc_generated_files/i2c_master.c: 192:         I2C_Status.callbackPayload[I2C_DATA_COMP
      +                          LETE] = ((void*)0);
  1444   0012F4  0E00               	movlw	0
  1445   0012F6  6FAA               	movwf	(_I2C_Status+12)& (0+255),b
  1446   0012F8  0E00               	movlw	0
  1447   0012FA  6FAB               	movwf	(_I2C_Status+13)& (0+255),b
  1448   0012FC                     
  1449                           ; BSR set to: 0
  1450                           ;mcc_generated_files/i2c_master.c: 193:         I2C_Status.callbackTable[I2C_WRITE_COLLI
      +                          SION]=I2C_CallbackReturnStop;
  1451   0012FC  0E46               	movlw	low _I2C_CallbackReturnStop
  1452   0012FE  6FA0               	movwf	(_I2C_Status+2)& (0+255),b
  1453   001300  0E19               	movlw	high _I2C_CallbackReturnStop
  1454   001302  6FA1               	movwf	(_I2C_Status+3)& (0+255),b
  1455   001304                     
  1456                           ; BSR set to: 0
  1457                           ;mcc_generated_files/i2c_master.c: 194:         I2C_Status.callbackPayload[I2C_WRITE_COL
      +                          LISION] = ((void*)0);
  1458   001304  0E00               	movlw	0
  1459   001306  6FAC               	movwf	(_I2C_Status+14)& (0+255),b
  1460   001308  0E00               	movlw	0
  1461   00130A  6FAD               	movwf	(_I2C_Status+15)& (0+255),b
  1462   00130C                     
  1463                           ; BSR set to: 0
  1464                           ;mcc_generated_files/i2c_master.c: 195:         I2C_Status.callbackTable[I2C_ADDR_NACK]=
      +                          I2C_CallbackReturnStop;
  1465   00130C  0E46               	movlw	low _I2C_CallbackReturnStop
  1466   00130E  6FA2               	movwf	(_I2C_Status+4)& (0+255),b
  1467   001310  0E19               	movlw	high _I2C_CallbackReturnStop
  1468   001312  6FA3               	movwf	(_I2C_Status+5)& (0+255),b
  1469   001314                     
  1470                           ; BSR set to: 0
  1471                           ;mcc_generated_files/i2c_master.c: 196:         I2C_Status.callbackPayload[I2C_ADDR_NACK
      +                          ] = ((void*)0);
  1472   001314  0E00               	movlw	0
  1473   001316  6FAE               	movwf	(_I2C_Status+16)& (0+255),b
  1474   001318  0E00               	movlw	0
  1475   00131A  6FAF               	movwf	(_I2C_Status+17)& (0+255),b
  1476   00131C                     
  1477                           ; BSR set to: 0
  1478                           ;mcc_generated_files/i2c_master.c: 197:         I2C_Status.callbackTable[I2C_DATA_NACK]=
      +                          I2C_CallbackReturnStop;
  1479   00131C  0E46               	movlw	low _I2C_CallbackReturnStop
  1480   00131E  6FA4               	movwf	(_I2C_Status+6)& (0+255),b
  1481   001320  0E19               	movlw	high _I2C_CallbackReturnStop
  1482   001322  6FA5               	movwf	(_I2C_Status+7)& (0+255),b
  1483   001324                     
  1484                           ; BSR set to: 0
  1485                           ;mcc_generated_files/i2c_master.c: 198:         I2C_Status.callbackPayload[I2C_DATA_NACK
      +                          ] = ((void*)0);
  1486   001324  0E00               	movlw	0
  1487   001326  6FB0               	movwf	(_I2C_Status+18)& (0+255),b
  1488   001328  0E00               	movlw	0
  1489   00132A  6FB1               	movwf	(_I2C_Status+19)& (0+255),b
  1490   00132C                     
  1491                           ; BSR set to: 0
  1492                           ;mcc_generated_files/i2c_master.c: 199:         I2C_Status.callbackTable[I2C_TIMEOUT]=I2
      +                          C_CallbackReturnReset;
  1493   00132C  0E42               	movlw	low _I2C_CallbackReturnReset
  1494   00132E  6FA6               	movwf	(_I2C_Status+8)& (0+255),b
  1495   001330  0E19               	movlw	high _I2C_CallbackReturnReset
  1496   001332  6FA7               	movwf	(_I2C_Status+9)& (0+255),b
  1497   001334                     
  1498                           ; BSR set to: 0
  1499                           ;mcc_generated_files/i2c_master.c: 200:         I2C_Status.callbackPayload[I2C_TIMEOUT] 
      +                          = ((void*)0);
  1500   001334  0E00               	movlw	0
  1501   001336  6FB2               	movwf	(_I2C_Status+20)& (0+255),b
  1502   001338  0E00               	movlw	0
  1503   00133A  6FB3               	movwf	(_I2C_Status+21)& (0+255),b
  1504   00133C                     
  1505                           ; BSR set to: 0
  1506                           ;mcc_generated_files/i2c_master.c: 202:         I2C_MasterClearIrq();
  1507   00133C  ECAF  F00C         	call	_I2C_MasterClearIrq	;wreg free
  1508   001340                     
  1509                           ;mcc_generated_files/i2c_master.c: 203:         I2C_MasterOpen();
  1510   001340  ECD6  F00B         	call	_I2C_MasterOpen	;wreg free
  1511   001344                     
  1512                           ;mcc_generated_files/i2c_master.c: 204:         returnValue = I2C_NOERR;
  1513   001344  0E00               	movlw	0
  1514   001346  6E06               	movwf	I2C_Open@returnValue^0,c
  1515   001348                     l3466:
  1516                           
  1517                           ;mcc_generated_files/i2c_master.c: 206:     return returnValue;
  1518   001348  5006               	movf	I2C_Open@returnValue^0,w,c
  1519   00134A  0012               	return		;funcret
  1520   00134C                     __end_of_I2C_Open:
  1521                           	callstack 0
  1522                           
  1523 ;; *************** function _I2C_MasterOpen *****************
  1524 ;; Defined at:
  1525 ;;		line 543 in file "mcc_generated_files/i2c_master.c"
  1526 ;; Parameters:    Size  Location     Type
  1527 ;;		None
  1528 ;; Auto vars:     Size  Location     Type
  1529 ;;		None
  1530 ;; Return value:  Size  Location     Type
  1531 ;;                  1    wreg      _Bool 
  1532 ;; Registers used:
  1533 ;;		wreg, status,2
  1534 ;; Tracked objects:
  1535 ;;		On entry : 0/0
  1536 ;;		On exit  : 0/0
  1537 ;;		Unchanged: 0/0
  1538 ;; Data sizes:     COMRAM   BANK0   BANK1   BANK2   BANK3   BANK4   BANK5   BANK6   BANK7   BANK8   BANK9  BANK10  BANK1
      +1  BANK12  BANK13  BANK14
  1539 ;;      Params:         0       0       0       0       0       0       0       0       0       0       0       0       
      +0       0       0       0
  1540 ;;      Locals:         0       0       0       0       0       0       0       0       0       0       0       0       
      +0       0       0       0
  1541 ;;      Temps:          0       0       0       0       0       0       0       0       0       0       0       0       
      +0       0       0       0
  1542 ;;      Totals:         0       0       0       0       0       0       0       0       0       0       0       0       
      +0       0       0       0
  1543 ;;Total ram usage:        0 bytes
  1544 ;; Hardware stack levels used: 1
  1545 ;; Hardware stack levels required when called: 4
  1546 ;; This function calls:
  1547 ;;		Nothing
  1548 ;; This function is called by:
  1549 ;;		_I2C_Open
  1550 ;; This function uses a non-reentrant model
  1551 ;;
  1552                           
  1553                           	psect	text13
  1554   0017AC                     __ptext13:
  1555                           	callstack 0
  1556   0017AC                     _I2C_MasterOpen:
  1557                           	callstack 25
  1558   0017AC                     
  1559                           ;mcc_generated_files/i2c_master.c: 545:     if(!SSPCON1bits.SSPEN)
  1560   0017AC  BAC6               	btfsc	198,5,c	;volatile
  1561   0017AE  EFDB  F00B         	goto	u1431
  1562   0017B2  EFDD  F00B         	goto	u1430
  1563   0017B6                     u1431:
  1564   0017B6  EFE6  F00B         	goto	l378
  1565   0017BA                     u1430:
  1566   0017BA                     
  1567                           ;mcc_generated_files/i2c_master.c: 546:     {;mcc_generated_files/i2c_master.c: 547:    
      +                               SSPSTAT = 0x00;
  1568   0017BA  0E00               	movlw	0
  1569   0017BC  6EC7               	movwf	199,c	;volatile
  1570                           
  1571                           ;mcc_generated_files/i2c_master.c: 548:         SSPCON1 = 0x08;
  1572   0017BE  0E08               	movlw	8
  1573   0017C0  6EC6               	movwf	198,c	;volatile
  1574                           
  1575                           ;mcc_generated_files/i2c_master.c: 549:         SSPCON2 = 0x00;
  1576   0017C2  0E00               	movlw	0
  1577   0017C4  6EC5               	movwf	197,c	;volatile
  1578                           
  1579                           ;mcc_generated_files/i2c_master.c: 550:         SSPADD = 0xC7;
  1580   0017C6  0EC7               	movlw	199
  1581   0017C8  6EC8               	movwf	200,c	;volatile
  1582   0017CA                     
  1583                           ;mcc_generated_files/i2c_master.c: 551:         SSPCON1bits.SSPEN = 1;
  1584   0017CA  8AC6               	bsf	198,5,c	;volatile
  1585   0017CC                     l378:
  1586   0017CC  0012               	return		;funcret
  1587   0017CE                     __end_of_I2C_MasterOpen:
  1588                           	callstack 0
  1589                           
  1590 ;; *************** function _I2C_MasterOperation *****************
  1591 ;; Defined at:
  1592 ;;		line 224 in file "mcc_generated_files/i2c_master.c"
  1593 ;; Parameters:    Size  Location     Type
  1594 ;;  read            1    wreg     _Bool 
  1595 ;; Auto vars:     Size  Location     Type
  1596 ;;  read            1   19[COMRAM] _Bool 
  1597 ;;  returnValue     1   20[COMRAM] enum E358
  1598 ;; Return value:  Size  Location     Type
  1599 ;;                  1    wreg      enum E358
  1600 ;; Registers used:
  1601 ;;		wreg, fsr2l, fsr2h, status,2, status,0, pcl, pclath, pclatu, tosl, tblptrl, tblptrh, tblptru, prodl, prodh, cstack
  1602 ;; Tracked objects:
  1603 ;;		On entry : 0/0
  1604 ;;		On exit  : 0/0
  1605 ;;		Unchanged: 0/0
  1606 ;; Data sizes:     COMRAM   BANK0   BANK1   BANK2   BANK3   BANK4   BANK5   BANK6   BANK7   BANK8   BANK9  BANK10  BANK1
      +1  BANK12  BANK13  BANK14
  1607 ;;      Params:         0       0       0       0       0       0       0       0       0       0       0       0       
      +0       0       0       0
  1608 ;;      Locals:         2       0       0       0       0       0       0       0       0       0       0       0       
      +0       0       0       0
  1609 ;;      Temps:          0       0       0       0       0       0       0       0       0       0       0       0       
      +0       0       0       0
  1610 ;;      Totals:         2       0       0       0       0       0       0       0       0       0       0       0       
      +0       0       0       0
  1611 ;;Total ram usage:        2 bytes
  1612 ;; Hardware stack levels used: 1
  1613 ;; Hardware stack levels required when called: 10
  1614 ;; This function calls:
  1615 ;;		_I2C_MasterStart
  1616 ;;		_I2C_Poller
  1617 ;; This function is called by:
  1618 ;;		_main
  1619 ;;		_I2C_MasterRead
  1620 ;;		_I2C_MasterWrite
  1621 ;; This function uses a non-reentrant model
  1622 ;;
  1623                           
  1624                           	psect	text14
  1625   001576                     __ptext14:
  1626                           	callstack 0
  1627   001576                     _I2C_MasterOperation:
  1628                           	callstack 20
  1629                           
  1630                           ;incstack = 0
  1631                           ;I2C_MasterOperation@read stored from wreg
  1632   001576  6E14               	movwf	I2C_MasterOperation@read^0,c
  1633   001578                     
  1634                           ;mcc_generated_files/i2c_master.c: 224: i2c_error_t I2C_MasterOperation(_Bool read);mcc_
      +                          generated_files/i2c_master.c: 225: {;mcc_generated_files/i2c_master.c: 226:     i2c_erro
      +                          r_t returnValue = I2C_BUSY;
  1635   001578  0E01               	movlw	1
  1636   00157A  6E15               	movwf	I2C_MasterOperation@returnValue^0,c
  1637   00157C                     
  1638                           ;mcc_generated_files/i2c_master.c: 227:     if(!I2C_Status.busy)
  1639   00157C  0100               	movlb	0	; () banked
  1640   00157E  B3C1               	btfsc	(_I2C_Status+35)& (0+255),1,b
  1641   001580  EFC4  F00A         	goto	u1471
  1642   001584  EFC6  F00A         	goto	u1470
  1643   001588                     u1471:
  1644   001588  EFDB  F00A         	goto	l3502
  1645   00158C                     u1470:
  1646   00158C                     
  1647                           ; BSR set to: 0
  1648                           ;mcc_generated_files/i2c_master.c: 228:     {;mcc_generated_files/i2c_master.c: 229:    
      +                               I2C_Status.busy = 1;
  1649   00158C  83C1               	bsf	(_I2C_Status+35)& (0+255),1,b
  1650   00158E                     
  1651                           ; BSR set to: 0
  1652                           ;mcc_generated_files/i2c_master.c: 230:         returnValue = I2C_NOERR;
  1653   00158E  0E00               	movlw	0
  1654   001590  6E15               	movwf	I2C_MasterOperation@returnValue^0,c
  1655   001592                     
  1656                           ; BSR set to: 0
  1657                           ;mcc_generated_files/i2c_master.c: 232:         if(read)
  1658   001592  5014               	movf	I2C_MasterOperation@read^0,w,c
  1659   001594  B4D8               	btfsc	status,2,c
  1660   001596  EFCF  F00A         	goto	u1481
  1661   00159A  EFD1  F00A         	goto	u1480
  1662   00159E                     u1481:
  1663   00159E  EFD5  F00A         	goto	l3496
  1664   0015A2                     u1480:
  1665   0015A2                     
  1666                           ; BSR set to: 0
  1667                           ;mcc_generated_files/i2c_master.c: 233:         {;mcc_generated_files/i2c_master.c: 234:
      +                                       I2C_Status.state = I2C_SEND_ADR_READ;
  1668   0015A2  0E01               	movlw	1
  1669   0015A4  6FBF               	movwf	(_I2C_Status+33)& (0+255),b
  1670                           
  1671                           ;mcc_generated_files/i2c_master.c: 235:         }
  1672   0015A6  EFD7  F00A         	goto	l3498
  1673   0015AA                     l3496:
  1674                           
  1675                           ; BSR set to: 0
  1676                           ;mcc_generated_files/i2c_master.c: 237:         {;mcc_generated_files/i2c_master.c: 238:
      +                                       I2C_Status.state = I2C_SEND_ADR_WRITE;
  1677   0015AA  0E02               	movlw	2
  1678   0015AC  6FBF               	movwf	(_I2C_Status+33)& (0+255),b
  1679   0015AE                     l3498:
  1680                           
  1681                           ; BSR set to: 0
  1682                           ;mcc_generated_files/i2c_master.c: 240:         I2C_MasterStart();
  1683   0015AE  ECA9  F00C         	call	_I2C_MasterStart	;wreg free
  1684   0015B2                     
  1685                           ;mcc_generated_files/i2c_master.c: 241:         I2C_Poller();
  1686   0015B2  ECE7  F00B         	call	_I2C_Poller	;wreg free
  1687   0015B6                     l3502:
  1688                           
  1689                           ;mcc_generated_files/i2c_master.c: 243:     return returnValue;
  1690   0015B6  5015               	movf	I2C_MasterOperation@returnValue^0,w,c
  1691   0015B8  0012               	return		;funcret
  1692   0015BA                     __end_of_I2C_MasterOperation:
  1693                           	callstack 0
  1694                           
  1695 ;; *************** function _I2C_Poller *****************
  1696 ;; Defined at:
  1697 ;;		line 312 in file "mcc_generated_files/i2c_master.c"
  1698 ;; Parameters:    Size  Location     Type
  1699 ;;		None
  1700 ;; Auto vars:     Size  Location     Type
  1701 ;;		None
  1702 ;; Return value:  Size  Location     Type
  1703 ;;                  1    wreg      void 
  1704 ;; Registers used:
  1705 ;;		wreg, fsr2l, fsr2h, status,2, status,0, pcl, pclath, pclatu, tosl, tblptrl, tblptrh, tblptru, prodl, prodh, cstack
  1706 ;; Tracked objects:
  1707 ;;		On entry : 0/0
  1708 ;;		On exit  : 0/0
  1709 ;;		Unchanged: 0/0
  1710 ;; Data sizes:     COMRAM   BANK0   BANK1   BANK2   BANK3   BANK4   BANK5   BANK6   BANK7   BANK8   BANK9  BANK10  BANK1
      +1  BANK12  BANK13  BANK14
  1711 ;;      Params:         0       0       0       0       0       0       0       0       0       0       0       0       
      +0       0       0       0
  1712 ;;      Locals:         0       0       0       0       0       0       0       0       0       0       0       0       
      +0       0       0       0
  1713 ;;      Temps:          0       0       0       0       0       0       0       0       0       0       0       0       
      +0       0       0       0
  1714 ;;      Totals:         0       0       0       0       0       0       0       0       0       0       0       0       
      +0       0       0       0
  1715 ;;Total ram usage:        0 bytes
  1716 ;; Hardware stack levels used: 1
  1717 ;; Hardware stack levels required when called: 9
  1718 ;; This function calls:
  1719 ;;		_I2C_MasterFsm
  1720 ;;		_I2C_MasterWaitForEvent
  1721 ;; This function is called by:
  1722 ;;		_I2C_MasterOperation
  1723 ;; This function uses a non-reentrant model
  1724 ;;
  1725                           
  1726                           	psect	text15
  1727   0017CE                     __ptext15:
  1728                           	callstack 0
  1729   0017CE                     _I2C_Poller:
  1730                           	callstack 20
  1731   0017CE                     
  1732                           ;mcc_generated_files/i2c_master.c: 314:     while(I2C_Status.busy)
  1733   0017CE  EFED  F00B         	goto	l3386
  1734   0017D2                     l3382:
  1735                           
  1736                           ; BSR set to: 0
  1737                           ;mcc_generated_files/i2c_master.c: 315:     {;mcc_generated_files/i2c_master.c: 316:    
      +                               I2C_MasterWaitForEvent();
  1738   0017D2  EC2A  F00C         	call	_I2C_MasterWaitForEvent	;wreg free
  1739   0017D6                     
  1740                           ;mcc_generated_files/i2c_master.c: 317:         I2C_MasterFsm();
  1741   0017D6  EC55  F00A         	call	_I2C_MasterFsm	;wreg free
  1742   0017DA                     l3386:
  1743                           
  1744                           ;mcc_generated_files/i2c_master.c: 314:     while(I2C_Status.busy)
  1745   0017DA  0100               	movlb	0	; () banked
  1746   0017DC  B3C1               	btfsc	(_I2C_Status+35)& (0+255),1,b
  1747   0017DE  EFF3  F00B         	goto	u1441
  1748   0017E2  EFF5  F00B         	goto	u1440
  1749   0017E6                     u1441:
  1750   0017E6  EFE9  F00B         	goto	l3382
  1751   0017EA                     u1440:
  1752   0017EA                     
  1753                           ; BSR set to: 0
  1754   0017EA  0012               	return		;funcret
  1755   0017EC                     __end_of_I2C_Poller:
  1756                           	callstack 0
  1757                           
  1758 ;; *************** function _I2C_MasterWaitForEvent *****************
  1759 ;; Defined at:
  1760 ;;		line 650 in file "mcc_generated_files/i2c_master.c"
  1761 ;; Parameters:    Size  Location     Type
  1762 ;;		None
  1763 ;; Auto vars:     Size  Location     Type
  1764 ;;		None
  1765 ;; Return value:  Size  Location     Type
  1766 ;;                  1    wreg      void 
  1767 ;; Registers used:
  1768 ;;		None
  1769 ;; Tracked objects:
  1770 ;;		On entry : 0/0
  1771 ;;		On exit  : 0/0
  1772 ;;		Unchanged: 0/0
  1773 ;; Data sizes:     COMRAM   BANK0   BANK1   BANK2   BANK3   BANK4   BANK5   BANK6   BANK7   BANK8   BANK9  BANK10  BANK1
      +1  BANK12  BANK13  BANK14
  1774 ;;      Params:         0       0       0       0       0       0       0       0       0       0       0       0       
      +0       0       0       0
  1775 ;;      Locals:         0       0       0       0       0       0       0       0       0       0       0       0       
      +0       0       0       0
  1776 ;;      Temps:          0       0       0       0       0       0       0       0       0       0       0       0       
      +0       0       0       0
  1777 ;;      Totals:         0       0       0       0       0       0       0       0       0       0       0       0       
      +0       0       0       0
  1778 ;;Total ram usage:        0 bytes
  1779 ;; Hardware stack levels used: 1
  1780 ;; Hardware stack levels required when called: 4
  1781 ;; This function calls:
  1782 ;;		Nothing
  1783 ;; This function is called by:
  1784 ;;		_I2C_Poller
  1785 ;; This function uses a non-reentrant model
  1786 ;;
  1787                           
  1788                           	psect	text16
  1789   001854                     __ptext16:
  1790                           	callstack 0
  1791   001854                     _I2C_MasterWaitForEvent:
  1792                           	callstack 24
  1793   001854                     l435:
  1794                           
  1795                           ;mcc_generated_files/i2c_master.c: 653:     {;mcc_generated_files/i2c_master.c: 654:    
      +                               if(PIR1bits.SSPIF)
  1796   001854  A69E               	btfss	158,3,c	;volatile
  1797   001856  EF2F  F00C         	goto	u1391
  1798   00185A  EF31  F00C         	goto	u1390
  1799   00185E                     u1391:
  1800   00185E  EF2A  F00C         	goto	l435
  1801   001862                     u1390:
  1802   001862  0012               	return		;funcret
  1803   001864                     __end_of_I2C_MasterWaitForEvent:
  1804                           	callstack 0
  1805                           
  1806 ;; *************** function _I2C_MasterFsm *****************
  1807 ;; Defined at:
  1808 ;;		line 321 in file "mcc_generated_files/i2c_master.c"
  1809 ;; Parameters:    Size  Location     Type
  1810 ;;		None
  1811 ;; Auto vars:     Size  Location     Type
  1812 ;;		None
  1813 ;; Return value:  Size  Location     Type
  1814 ;;                  1    wreg      void 
  1815 ;; Registers used:
  1816 ;;		wreg, fsr2l, fsr2h, status,2, status,0, pcl, pclath, pclatu, tosl, tblptrl, tblptrh, tblptru, prodl, prodh, cstack
  1817 ;; Tracked objects:
  1818 ;;		On entry : 0/0
  1819 ;;		On exit  : 0/0
  1820 ;;		Unchanged: 0/0
  1821 ;; Data sizes:     COMRAM   BANK0   BANK1   BANK2   BANK3   BANK4   BANK5   BANK6   BANK7   BANK8   BANK9  BANK10  BANK1
      +1  BANK12  BANK13  BANK14
  1822 ;;      Params:         0       0       0       0       0       0       0       0       0       0       0       0       
      +0       0       0       0
  1823 ;;      Locals:         0       0       0       0       0       0       0       0       0       0       0       0       
      +0       0       0       0
  1824 ;;      Temps:          1       0       0       0       0       0       0       0       0       0       0       0       
      +0       0       0       0
  1825 ;;      Totals:         1       0       0       0       0       0       0       0       0       0       0       0       
      +0       0       0       0
  1826 ;;Total ram usage:        1 bytes
  1827 ;; Hardware stack levels used: 1
  1828 ;; Hardware stack levels required when called: 8
  1829 ;; This function calls:
  1830 ;;		_I2C_DO_ADDRESS_NACK
  1831 ;;		_I2C_DO_IDLE
  1832 ;;		_I2C_DO_RCEN
  1833 ;;		_I2C_DO_RESET
  1834 ;;		_I2C_DO_RX
  1835 ;;		_I2C_DO_RX_ACK
  1836 ;;		_I2C_DO_RX_NACK_RESTART
  1837 ;;		_I2C_DO_RX_NACK_STOP
  1838 ;;		_I2C_DO_SEND_ADR_READ
  1839 ;;		_I2C_DO_SEND_ADR_WRITE
  1840 ;;		_I2C_DO_SEND_RESTART
  1841 ;;		_I2C_DO_SEND_RESTART_READ
  1842 ;;		_I2C_DO_SEND_RESTART_WRITE
  1843 ;;		_I2C_DO_SEND_STOP
  1844 ;;		_I2C_DO_TX
  1845 ;;		_I2C_DO_TX_EMPTY
  1846 ;;		_I2C_MasterClearIrq
  1847 ;;		_I2C_MasterIsNack
  1848 ;; This function is called by:
  1849 ;;		_I2C_Poller
  1850 ;; This function uses a non-reentrant model
  1851 ;;
  1852                           
  1853                           	psect	text17
  1854   0014AA                     __ptext17:
  1855                           	callstack 0
  1856   0014AA                     _I2C_MasterFsm:
  1857                           	callstack 20
  1858   0014AA                     
  1859                           ;mcc_generated_files/i2c_master.c: 323:     I2C_MasterClearIrq();
  1860   0014AA  ECAF  F00C         	call	_I2C_MasterClearIrq	;wreg free
  1861   0014AE                     
  1862                           ;mcc_generated_files/i2c_master.c: 325:     if(I2C_Status.addressNackCheck && I2C_Master
      +                          IsNack())
  1863   0014AE  0100               	movlb	0	; () banked
  1864   0014B0  A1C1               	btfss	(_I2C_Status+35)& (0+255),0,b
  1865   0014B2  EF5D  F00A         	goto	u1401
  1866   0014B6  EF5F  F00A         	goto	u1400
  1867   0014BA                     u1401:
  1868   0014BA  EF6C  F00A         	goto	l3350
  1869   0014BE                     u1400:
  1870   0014BE                     
  1871                           ; BSR set to: 0
  1872   0014BE  EC17  F00C         	call	_I2C_MasterIsNack	;wreg free
  1873   0014C2  0900               	iorlw	0
  1874   0014C4  B4D8               	btfsc	status,2,c
  1875   0014C6  EF67  F00A         	goto	u1411
  1876   0014CA  EF69  F00A         	goto	u1410
  1877   0014CE                     u1411:
  1878   0014CE  EF6C  F00A         	goto	l3350
  1879   0014D2                     u1410:
  1880   0014D2                     
  1881                           ;mcc_generated_files/i2c_master.c: 326:     {;mcc_generated_files/i2c_master.c: 327:    
      +                               I2C_Status.state = I2C_ADDRESS_NACK;
  1882   0014D2  0E0F               	movlw	15
  1883   0014D4  0100               	movlb	0	; () banked
  1884   0014D6  6FBF               	movwf	(_I2C_Status+33)& (0+255),b
  1885   0014D8                     l3350:
  1886                           
  1887                           ;mcc_generated_files/i2c_master.c: 329:     I2C_Status.state = i2c_fsmStateTable[I2C_Sta
      +                          tus.state]();
  1888   0014D8  0100               	movlb	0	; () banked
  1889   0014DA  51BF               	movf	(_I2C_Status+33)& (0+255),w,b
  1890   0014DC  0D02               	mullw	2
  1891   0014DE  50F3               	movf	243,w,c
  1892   0014E0  0F01               	addlw	low _i2c_fsmStateTable
  1893   0014E2  6E13               	movwf	??_I2C_MasterFsm^0,c
  1894   0014E4  C013  FFF6         	movff	??_I2C_MasterFsm,tblptrl
  1895   0014E8                     	if	1	;There is more than 1 active tblptr byte
  1896   0014E8  0E0F               	movlw	high __smallconst
  1897   0014EA  6EF7               	movwf	tblptrh,c
  1898   0014EC                     	endif
  1899   0014EC                     	if	0	;tblptru may be non-zero
  1900   0014EC                     	endif
  1901   0014EC                     	if	0	;tblptru may be non-zero
  1902   0014EC                     	endif
  1903   0014EC  D802               	call	u1428
  1904   0014EE  EF85  F00A         	goto	u1429
  1905   0014F2                     u1428:
  1906   0014F2  0005               	push	
  1907   0014F4  6EFA               	movwf	pclath,c
  1908   0014F6  0009               	tblrd		*+
  1909   0014F8  50F5               	movf	tablat,w,c
  1910   0014FA  6EFD               	movwf	tosl,c
  1911   0014FC  0009               	tblrd		*+
  1912   0014FE  50F5               	movf	tablat,w,c
  1913   001500  6EFE               	movwf	tosh,c
  1914   001502  50F8               	movf	tblptru,w,c
  1915   001504  6EFF               	movwf	tosu,c
  1916   001506  50FA               	movf	pclath,w,c
  1917   001508  0012               	return		;indir
  1918   00150A                     u1429:
  1919   00150A  0100               	movlb	0	; () banked
  1920   00150C  6FBF               	movwf	(_I2C_Status+33)& (0+255),b
  1921   00150E                     
  1922                           ; BSR set to: 0
  1923   00150E  0012               	return		;funcret
  1924   001510                     __end_of_I2C_MasterFsm:
  1925                           	callstack 0
  1926                           
  1927 ;; *************** function _I2C_DO_ADDRESS_NACK *****************
  1928 ;; Defined at:
  1929 ;;		line 500 in file "mcc_generated_files/i2c_master.c"
  1930 ;; Parameters:    Size  Location     Type
  1931 ;;		None
  1932 ;; Auto vars:     Size  Location     Type
  1933 ;;		None
  1934 ;; Return value:  Size  Location     Type
  1935 ;;                  1    wreg      enum E12602
  1936 ;; Registers used:
  1937 ;;		wreg, fsr2l, fsr2h, status,2, status,0, pcl, pclath, pclatu, tosl, prodl, prodh, cstack
  1938 ;; Tracked objects:
  1939 ;;		On entry : 0/0
  1940 ;;		On exit  : 0/0
  1941 ;;		Unchanged: 0/0
  1942 ;; Data sizes:     COMRAM   BANK0   BANK1   BANK2   BANK3   BANK4   BANK5   BANK6   BANK7   BANK8   BANK9  BANK10  BANK1
      +1  BANK12  BANK13  BANK14
  1943 ;;      Params:         0       0       0       0       0       0       0       0       0       0       0       0       
      +0       0       0       0
  1944 ;;      Locals:         0       0       0       0       0       0       0       0       0       0       0       0       
      +0       0       0       0
  1945 ;;      Temps:          2       0       0       0       0       0       0       0       0       0       0       0       
      +0       0       0       0
  1946 ;;      Totals:         2       0       0       0       0       0       0       0       0       0       0       0       
      +0       0       0       0
  1947 ;;Total ram usage:        2 bytes
  1948 ;; Hardware stack levels used: 1
  1949 ;; Hardware stack levels required when called: 7
  1950 ;; This function calls:
  1951 ;;		NULL
  1952 ;;		_I2C_CallbackReturnReset
  1953 ;;		_I2C_CallbackReturnStop
  1954 ;;		_I2C_DO_SEND_RESTART
  1955 ;;		_I2C_DO_SEND_STOP
  1956 ;;		_rd1RegCompleteHandler
  1957 ;;		_rd2RegCompleteHandler
  1958 ;;		_rdBlkRegCompleteHandler
  1959 ;;		_wr1RegCompleteHandler
  1960 ;;		_wr2RegCompleteHandler
  1961 ;; This function is called by:
  1962 ;;		_I2C_MasterFsm
  1963 ;; This function uses a non-reentrant model
  1964 ;;
  1965                           
  1966                           	psect	text18
  1967   00143E                     __ptext18:
  1968                           	callstack 0
  1969   00143E                     _I2C_DO_ADDRESS_NACK:
  1970                           	callstack 20
  1971   00143E                     
  1972                           ;mcc_generated_files/i2c_master.c: 502:     I2C_Status.addressNackCheck = 0;
  1973   00143E  0100               	movlb	0	; () banked
  1974   001440  91C1               	bcf	(_I2C_Status+35)& (0+255),0,b
  1975   001442                     
  1976                           ; BSR set to: 0
  1977                           ;mcc_generated_files/i2c_master.c: 503:     I2C_Status.error = I2C_FAIL;
  1978   001442  0E02               	movlw	2
  1979   001444  6FC0               	movwf	(_I2C_Status+34)& (0+255),b
  1980                           
  1981                           ;mcc_generated_files/i2c_master.c: 504:     switch(I2C_Status.callbackTable[I2C_ADDR_NAC
      +                          K](I2C_Status.callbackPayload[I2C_ADDR_NACK]))
  1982   001446  EF2D  F00A         	goto	l3334
  1983   00144A                     l3324:
  1984                           
  1985                           ;mcc_generated_files/i2c_master.c: 508:             return I2C_DO_SEND_RESTART();
  1986   00144A  EC7D  F00C         	call	_I2C_DO_SEND_RESTART	;wreg free
  1987   00144E  EF54  F00A         	goto	l357
  1988   001452                     l3328:
  1989                           
  1990                           ;mcc_generated_files/i2c_master.c: 510:             return I2C_DO_SEND_STOP();
  1991   001452  EC79  F00C         	call	_I2C_DO_SEND_STOP	;wreg free
  1992   001456  EF54  F00A         	goto	l357
  1993   00145A                     l3334:
  1994                           
  1995                           ; BSR set to: 0
  1996   00145A  C0AE  F00E         	movff	_I2C_Status+16,I2C_CallbackReturnReset@funPtr
  1997   00145E  C0AF  F00F         	movff	_I2C_Status+17,I2C_CallbackReturnReset@funPtr+1
  1998   001462  EE20  F0A2         	lfsr	2,_I2C_Status+4
  1999   001466  D802               	call	u1388
  2000   001468  EF40  F00A         	goto	u1389
  2001   00146C                     u1388:
  2002   00146C  0005               	push	
  2003   00146E  6EFA               	movwf	pclath,c
  2004   001470  50DE               	movf	postinc2,w,c
  2005   001472  6EFD               	movwf	tosl,c
  2006   001474  50DE               	movf	postinc2,w,c
  2007   001476  6EFE               	movwf	tosh,c
  2008   001478  50F8               	movf	tblptru,w,c
  2009   00147A  6EFF               	movwf	tosu,c
  2010   00147C  50FA               	movf	pclath,w,c
  2011   00147E  0012               	return		;indir
  2012   001480                     u1389:
  2013   001480  6E11               	movwf	??_I2C_DO_ADDRESS_NACK^0,c
  2014   001482  6A12               	clrf	(??_I2C_DO_ADDRESS_NACK+1)^0,c
  2015                           
  2016                           ; Switch on 2 bytes has been partitioned into a top level switch of size 1, and 1 sub-sw
      +                          itches
  2017                           ; Switch size 1, requested type "simple"
  2018                           ; Number of cases is 1, Range of values is 0 to 0
  2019                           ; switch strategies available:
  2020                           ; Name         Instructions Cycles
  2021                           ; simple_byte            4     3 (average)
  2022                           ;	Chosen strategy is simple_byte
  2023   001484  5012               	movf	(??_I2C_DO_ADDRESS_NACK+1)^0,w,c
  2024   001486  0A00               	xorlw	0	; case 0
  2025   001488  B4D8               	btfsc	status,2,c
  2026   00148A  EF49  F00A         	goto	l3790
  2027   00148E  EF29  F00A         	goto	l3328
  2028   001492                     l3790:
  2029                           
  2030                           ; Switch size 1, requested type "simple"
  2031                           ; Number of cases is 2, Range of values is 2 to 3
  2032                           ; switch strategies available:
  2033                           ; Name         Instructions Cycles
  2034                           ; simple_byte            7     4 (average)
  2035                           ;	Chosen strategy is simple_byte
  2036   001492  5011               	movf	??_I2C_DO_ADDRESS_NACK^0,w,c
  2037   001494  0A02               	xorlw	2	; case 2
  2038   001496  B4D8               	btfsc	status,2,c
  2039   001498  EF25  F00A         	goto	l3324
  2040   00149C  0A01               	xorlw	1	; case 3
  2041   00149E  B4D8               	btfsc	status,2,c
  2042   0014A0  EF25  F00A         	goto	l3324
  2043   0014A4  EF29  F00A         	goto	l3328
  2044   0014A8                     l357:
  2045   0014A8  0012               	return		;funcret
  2046   0014AA                     __end_of_I2C_DO_ADDRESS_NACK:
  2047                           	callstack 0
  2048                           
  2049 ;; *************** function _I2C_DO_RESET *****************
  2050 ;; Defined at:
  2051 ;;		line 494 in file "mcc_generated_files/i2c_master.c"
  2052 ;; Parameters:    Size  Location     Type
  2053 ;;		None
  2054 ;; Auto vars:     Size  Location     Type
  2055 ;;		None
  2056 ;; Return value:  Size  Location     Type
  2057 ;;                  1    wreg      enum E12602
  2058 ;; Registers used:
  2059 ;;		wreg, status,2
  2060 ;; Tracked objects:
  2061 ;;		On entry : 0/0
  2062 ;;		On exit  : 0/0
  2063 ;;		Unchanged: 0/0
  2064 ;; Data sizes:     COMRAM   BANK0   BANK1   BANK2   BANK3   BANK4   BANK5   BANK6   BANK7   BANK8   BANK9  BANK10  BANK1
      +1  BANK12  BANK13  BANK14
  2065 ;;      Params:         0       0       0       0       0       0       0       0       0       0       0       0       
      +0       0       0       0
  2066 ;;      Locals:         0       0       0       0       0       0       0       0       0       0       0       0       
      +0       0       0       0
  2067 ;;      Temps:          0       0       0       0       0       0       0       0       0       0       0       0       
      +0       0       0       0
  2068 ;;      Totals:         0       0       0       0       0       0       0       0       0       0       0       0       
      +0       0       0       0
  2069 ;;Total ram usage:        0 bytes
  2070 ;; Hardware stack levels used: 1
  2071 ;; Hardware stack levels required when called: 4
  2072 ;; This function calls:
  2073 ;;		Nothing
  2074 ;; This function is called by:
  2075 ;;		_I2C_MasterFsm
  2076 ;; This function uses a non-reentrant model
  2077 ;;
  2078                           
  2079                           	psect	text19
  2080   001884                     __ptext19:
  2081                           	callstack 0
  2082   001884                     _I2C_DO_RESET:
  2083                           	callstack 23
  2084   001884                     
  2085                           ;mcc_generated_files/i2c_master.c: 496:     I2C_Status.busy = 0;
  2086   001884  0100               	movlb	0	; () banked
  2087   001886  93C1               	bcf	(_I2C_Status+35)& (0+255),1,b
  2088   001888                     
  2089                           ; BSR set to: 0
  2090                           ;mcc_generated_files/i2c_master.c: 497:     I2C_Status.error = I2C_NOERR;
  2091   001888  0E00               	movlw	0
  2092   00188A  6FC0               	movwf	(_I2C_Status+34)& (0+255),b
  2093   00188C                     
  2094                           ; BSR set to: 0
  2095                           ;mcc_generated_files/i2c_master.c: 498:     return I2C_RESET;
  2096   00188C  0E0E               	movlw	14
  2097   00188E                     
  2098                           ; BSR set to: 0
  2099   00188E  0012               	return		;funcret
  2100   001890                     __end_of_I2C_DO_RESET:
  2101                           	callstack 0
  2102                           
  2103 ;; *************** function _I2C_DO_RX_NACK_RESTART *****************
  2104 ;; Defined at:
  2105 ;;		line 488 in file "mcc_generated_files/i2c_master.c"
  2106 ;; Parameters:    Size  Location     Type
  2107 ;;		None
  2108 ;; Auto vars:     Size  Location     Type
  2109 ;;		None
  2110 ;; Return value:  Size  Location     Type
  2111 ;;                  1    wreg      enum E12602
  2112 ;; Registers used:
  2113 ;;		wreg, cstack
  2114 ;; Tracked objects:
  2115 ;;		On entry : 0/0
  2116 ;;		On exit  : 0/0
  2117 ;;		Unchanged: 0/0
  2118 ;; Data sizes:     COMRAM   BANK0   BANK1   BANK2   BANK3   BANK4   BANK5   BANK6   BANK7   BANK8   BANK9  BANK10  BANK1
      +1  BANK12  BANK13  BANK14
  2119 ;;      Params:         0       0       0       0       0       0       0       0       0       0       0       0       
      +0       0       0       0
  2120 ;;      Locals:         0       0       0       0       0       0       0       0       0       0       0       0       
      +0       0       0       0
  2121 ;;      Temps:          0       0       0       0       0       0       0       0       0       0       0       0       
      +0       0       0       0
  2122 ;;      Totals:         0       0       0       0       0       0       0       0       0       0       0       0       
      +0       0       0       0
  2123 ;;Total ram usage:        0 bytes
  2124 ;; Hardware stack levels used: 1
  2125 ;; Hardware stack levels required when called: 5
  2126 ;; This function calls:
  2127 ;;		_I2C_MasterSendNack
  2128 ;; This function is called by:
  2129 ;;		_I2C_DO_RX
  2130 ;;		_I2C_MasterFsm
  2131 ;; This function uses a non-reentrant model
  2132 ;;
  2133                           
  2134                           	psect	text20
  2135   0018DA                     __ptext20:
  2136                           	callstack 0
  2137   0018DA                     _I2C_DO_RX_NACK_RESTART:
  2138                           	callstack 22
  2139   0018DA                     
  2140                           ;mcc_generated_files/i2c_master.c: 490:     I2C_MasterSendNack();
  2141   0018DA  EC90  F00C         	call	_I2C_MasterSendNack	;wreg free
  2142   0018DE                     
  2143                           ;mcc_generated_files/i2c_master.c: 491:     return I2C_SEND_RESTART;
  2144   0018DE  0E09               	movlw	9
  2145   0018E0  0012               	return		;funcret
  2146   0018E2                     __end_of_I2C_DO_RX_NACK_RESTART:
  2147                           	callstack 0
  2148                           
  2149 ;; *************** function _I2C_DO_RX_NACK_STOP *****************
  2150 ;; Defined at:
  2151 ;;		line 482 in file "mcc_generated_files/i2c_master.c"
  2152 ;; Parameters:    Size  Location     Type
  2153 ;;		None
  2154 ;; Auto vars:     Size  Location     Type
  2155 ;;		None
  2156 ;; Return value:  Size  Location     Type
  2157 ;;                  1    wreg      enum E12602
  2158 ;; Registers used:
  2159 ;;		wreg, cstack
  2160 ;; Tracked objects:
  2161 ;;		On entry : 0/0
  2162 ;;		On exit  : 0/0
  2163 ;;		Unchanged: 0/0
  2164 ;; Data sizes:     COMRAM   BANK0   BANK1   BANK2   BANK3   BANK4   BANK5   BANK6   BANK7   BANK8   BANK9  BANK10  BANK1
      +1  BANK12  BANK13  BANK14
  2165 ;;      Params:         0       0       0       0       0       0       0       0       0       0       0       0       
      +0       0       0       0
  2166 ;;      Locals:         0       0       0       0       0       0       0       0       0       0       0       0       
      +0       0       0       0
  2167 ;;      Temps:          0       0       0       0       0       0       0       0       0       0       0       0       
      +0       0       0       0
  2168 ;;      Totals:         0       0       0       0       0       0       0       0       0       0       0       0       
      +0       0       0       0
  2169 ;;Total ram usage:        0 bytes
  2170 ;; Hardware stack levels used: 1
  2171 ;; Hardware stack levels required when called: 5
  2172 ;; This function calls:
  2173 ;;		_I2C_MasterSendNack
  2174 ;; This function is called by:
  2175 ;;		_I2C_DO_RX
  2176 ;;		_I2C_MasterFsm
  2177 ;; This function uses a non-reentrant model
  2178 ;;
  2179                           
  2180                           	psect	text21
  2181   0018E2                     __ptext21:
  2182                           	callstack 0
  2183   0018E2                     _I2C_DO_RX_NACK_STOP:
  2184                           	callstack 22
  2185   0018E2                     
  2186                           ;mcc_generated_files/i2c_master.c: 484:     I2C_MasterSendNack();
  2187   0018E2  EC90  F00C         	call	_I2C_MasterSendNack	;wreg free
  2188   0018E6                     
  2189                           ;mcc_generated_files/i2c_master.c: 485:     return I2C_SEND_STOP;
  2190   0018E6  0E0A               	movlw	10
  2191   0018E8  0012               	return		;funcret
  2192   0018EA                     __end_of_I2C_DO_RX_NACK_STOP:
  2193                           	callstack 0
  2194                           
  2195 ;; *************** function _I2C_DO_RX_ACK *****************
  2196 ;; Defined at:
  2197 ;;		line 475 in file "mcc_generated_files/i2c_master.c"
  2198 ;; Parameters:    Size  Location     Type
  2199 ;;		None
  2200 ;; Auto vars:     Size  Location     Type
  2201 ;;		None
  2202 ;; Return value:  Size  Location     Type
  2203 ;;                  1    wreg      enum E12602
  2204 ;; Registers used:
  2205 ;;		wreg, cstack
  2206 ;; Tracked objects:
  2207 ;;		On entry : 0/0
  2208 ;;		On exit  : 0/0
  2209 ;;		Unchanged: 0/0
  2210 ;; Data sizes:     COMRAM   BANK0   BANK1   BANK2   BANK3   BANK4   BANK5   BANK6   BANK7   BANK8   BANK9  BANK10  BANK1
      +1  BANK12  BANK13  BANK14
  2211 ;;      Params:         0       0       0       0       0       0       0       0       0       0       0       0       
      +0       0       0       0
  2212 ;;      Locals:         0       0       0       0       0       0       0       0       0       0       0       0       
      +0       0       0       0
  2213 ;;      Temps:          0       0       0       0       0       0       0       0       0       0       0       0       
      +0       0       0       0
  2214 ;;      Totals:         0       0       0       0       0       0       0       0       0       0       0       0       
      +0       0       0       0
  2215 ;;Total ram usage:        0 bytes
  2216 ;; Hardware stack levels used: 1
  2217 ;; Hardware stack levels required when called: 5
  2218 ;; This function calls:
  2219 ;;		_I2C_MasterSendAck
  2220 ;; This function is called by:
  2221 ;;		_I2C_MasterFsm
  2222 ;; This function uses a non-reentrant model
  2223 ;;
  2224                           
  2225                           	psect	text22
  2226   0018EA                     __ptext22:
  2227                           	callstack 0
  2228   0018EA                     _I2C_DO_RX_ACK:
  2229                           	callstack 22
  2230   0018EA                     
  2231                           ;mcc_generated_files/i2c_master.c: 477:     I2C_MasterSendAck();
  2232   0018EA  EC8D  F00C         	call	_I2C_MasterSendAck	;wreg free
  2233   0018EE                     
  2234                           ;mcc_generated_files/i2c_master.c: 478:     return I2C_RCEN;
  2235   0018EE  0E05               	movlw	5
  2236   0018F0  0012               	return		;funcret
  2237   0018F2                     __end_of_I2C_DO_RX_ACK:
  2238                           	callstack 0
  2239                           
  2240 ;; *************** function _I2C_DO_SEND_STOP *****************
  2241 ;; Defined at:
  2242 ;;		line 469 in file "mcc_generated_files/i2c_master.c"
  2243 ;; Parameters:    Size  Location     Type
  2244 ;;		None
  2245 ;; Auto vars:     Size  Location     Type
  2246 ;;		None
  2247 ;; Return value:  Size  Location     Type
  2248 ;;                  1    wreg      enum E12602
  2249 ;; Registers used:
  2250 ;;		wreg, cstack
  2251 ;; Tracked objects:
  2252 ;;		On entry : 0/0
  2253 ;;		On exit  : 0/0
  2254 ;;		Unchanged: 0/0
  2255 ;; Data sizes:     COMRAM   BANK0   BANK1   BANK2   BANK3   BANK4   BANK5   BANK6   BANK7   BANK8   BANK9  BANK10  BANK1
      +1  BANK12  BANK13  BANK14
  2256 ;;      Params:         0       0       0       0       0       0       0       0       0       0       0       0       
      +0       0       0       0
  2257 ;;      Locals:         0       0       0       0       0       0       0       0       0       0       0       0       
      +0       0       0       0
  2258 ;;      Temps:          0       0       0       0       0       0       0       0       0       0       0       0       
      +0       0       0       0
  2259 ;;      Totals:         0       0       0       0       0       0       0       0       0       0       0       0       
      +0       0       0       0
  2260 ;;Total ram usage:        0 bytes
  2261 ;; Hardware stack levels used: 1
  2262 ;; Hardware stack levels required when called: 5
  2263 ;; This function calls:
  2264 ;;		_I2C_MasterStop
  2265 ;; This function is called by:
  2266 ;;		_I2C_DO_TX
  2267 ;;		_I2C_DO_TX_EMPTY
  2268 ;;		_I2C_DO_ADDRESS_NACK
  2269 ;;		_I2C_MasterFsm
  2270 ;; This function uses a non-reentrant model
  2271 ;;
  2272                           
  2273                           	psect	text23
  2274   0018F2                     __ptext23:
  2275                           	callstack 0
  2276   0018F2                     _I2C_DO_SEND_STOP:
  2277                           	callstack 21
  2278   0018F2                     
  2279                           ;mcc_generated_files/i2c_master.c: 471:     I2C_MasterStop();
  2280   0018F2  ECA5  F00C         	call	_I2C_MasterStop	;wreg free
  2281   0018F6                     
  2282                           ;mcc_generated_files/i2c_master.c: 472:     return I2C_IDLE;
  2283   0018F6  0E00               	movlw	0
  2284   0018F8  0012               	return		;funcret
  2285   0018FA                     __end_of_I2C_DO_SEND_STOP:
  2286                           	callstack 0
  2287                           
  2288 ;; *************** function _I2C_DO_SEND_RESTART *****************
  2289 ;; Defined at:
  2290 ;;		line 463 in file "mcc_generated_files/i2c_master.c"
  2291 ;; Parameters:    Size  Location     Type
  2292 ;;		None
  2293 ;; Auto vars:     Size  Location     Type
  2294 ;;		None
  2295 ;; Return value:  Size  Location     Type
  2296 ;;                  1    wreg      enum E12602
  2297 ;; Registers used:
  2298 ;;		wreg, cstack
  2299 ;; Tracked objects:
  2300 ;;		On entry : 0/0
  2301 ;;		On exit  : 0/0
  2302 ;;		Unchanged: 0/0
  2303 ;; Data sizes:     COMRAM   BANK0   BANK1   BANK2   BANK3   BANK4   BANK5   BANK6   BANK7   BANK8   BANK9  BANK10  BANK1
      +1  BANK12  BANK13  BANK14
  2304 ;;      Params:         0       0       0       0       0       0       0       0       0       0       0       0       
      +0       0       0       0
  2305 ;;      Locals:         0       0       0       0       0       0       0       0       0       0       0       0       
      +0       0       0       0
  2306 ;;      Temps:          0       0       0       0       0       0       0       0       0       0       0       0       
      +0       0       0       0
  2307 ;;      Totals:         0       0       0       0       0       0       0       0       0       0       0       0       
      +0       0       0       0
  2308 ;;Total ram usage:        0 bytes
  2309 ;; Hardware stack levels used: 1
  2310 ;; Hardware stack levels required when called: 5
  2311 ;; This function calls:
  2312 ;;		_I2C_MasterEnableRestart
  2313 ;; This function is called by:
  2314 ;;		_I2C_DO_TX_EMPTY
  2315 ;;		_I2C_DO_ADDRESS_NACK
  2316 ;;		_I2C_MasterFsm
  2317 ;; This function uses a non-reentrant model
  2318 ;;
  2319                           
  2320                           	psect	text24
  2321   0018FA                     __ptext24:
  2322                           	callstack 0
  2323   0018FA                     _I2C_DO_SEND_RESTART:
  2324                           	callstack 21
  2325   0018FA                     
  2326                           ;mcc_generated_files/i2c_master.c: 465:     I2C_MasterEnableRestart();
  2327   0018FA  ECA7  F00C         	call	_I2C_MasterEnableRestart	;wreg free
  2328   0018FE                     
  2329                           ;mcc_generated_files/i2c_master.c: 466:     return I2C_SEND_ADR_READ;
  2330   0018FE  0E01               	movlw	1
  2331   001900  0012               	return		;funcret
  2332   001902                     __end_of_I2C_DO_SEND_RESTART:
  2333                           	callstack 0
  2334                           
  2335 ;; *************** function _I2C_DO_SEND_RESTART_WRITE *****************
  2336 ;; Defined at:
  2337 ;;		line 456 in file "mcc_generated_files/i2c_master.c"
  2338 ;; Parameters:    Size  Location     Type
  2339 ;;		None
  2340 ;; Auto vars:     Size  Location     Type
  2341 ;;		None
  2342 ;; Return value:  Size  Location     Type
  2343 ;;                  1    wreg      enum E12602
  2344 ;; Registers used:
  2345 ;;		wreg, cstack
  2346 ;; Tracked objects:
  2347 ;;		On entry : 0/0
  2348 ;;		On exit  : 0/0
  2349 ;;		Unchanged: 0/0
  2350 ;; Data sizes:     COMRAM   BANK0   BANK1   BANK2   BANK3   BANK4   BANK5   BANK6   BANK7   BANK8   BANK9  BANK10  BANK1
      +1  BANK12  BANK13  BANK14
  2351 ;;      Params:         0       0       0       0       0       0       0       0       0       0       0       0       
      +0       0       0       0
  2352 ;;      Locals:         0       0       0       0       0       0       0       0       0       0       0       0       
      +0       0       0       0
  2353 ;;      Temps:          0       0       0       0       0       0       0       0       0       0       0       0       
      +0       0       0       0
  2354 ;;      Totals:         0       0       0       0       0       0       0       0       0       0       0       0       
      +0       0       0       0
  2355 ;;Total ram usage:        0 bytes
  2356 ;; Hardware stack levels used: 1
  2357 ;; Hardware stack levels required when called: 5
  2358 ;; This function calls:
  2359 ;;		_I2C_MasterEnableRestart
  2360 ;; This function is called by:
  2361 ;;		_I2C_DO_TX
  2362 ;;		_I2C_MasterFsm
  2363 ;; This function uses a non-reentrant model
  2364 ;;
  2365                           
  2366                           	psect	text25
  2367   001902                     __ptext25:
  2368                           	callstack 0
  2369   001902                     _I2C_DO_SEND_RESTART_WRITE:
  2370                           	callstack 21
  2371   001902                     
  2372                           ;mcc_generated_files/i2c_master.c: 458:     I2C_MasterEnableRestart();
  2373   001902  ECA7  F00C         	call	_I2C_MasterEnableRestart	;wreg free
  2374   001906                     
  2375                           ;mcc_generated_files/i2c_master.c: 459:     return I2C_SEND_ADR_WRITE;
  2376   001906  0E02               	movlw	2
  2377   001908  0012               	return		;funcret
  2378   00190A                     __end_of_I2C_DO_SEND_RESTART_WRITE:
  2379                           	callstack 0
  2380                           
  2381 ;; *************** function _I2C_DO_SEND_RESTART_READ *****************
  2382 ;; Defined at:
  2383 ;;		line 450 in file "mcc_generated_files/i2c_master.c"
  2384 ;; Parameters:    Size  Location     Type
  2385 ;;		None
  2386 ;; Auto vars:     Size  Location     Type
  2387 ;;		None
  2388 ;; Return value:  Size  Location     Type
  2389 ;;                  1    wreg      enum E12602
  2390 ;; Registers used:
  2391 ;;		wreg, cstack
  2392 ;; Tracked objects:
  2393 ;;		On entry : 0/0
  2394 ;;		On exit  : 0/0
  2395 ;;		Unchanged: 0/0
  2396 ;; Data sizes:     COMRAM   BANK0   BANK1   BANK2   BANK3   BANK4   BANK5   BANK6   BANK7   BANK8   BANK9  BANK10  BANK1
      +1  BANK12  BANK13  BANK14
  2397 ;;      Params:         0       0       0       0       0       0       0       0       0       0       0       0       
      +0       0       0       0
  2398 ;;      Locals:         0       0       0       0       0       0       0       0       0       0       0       0       
      +0       0       0       0
  2399 ;;      Temps:          0       0       0       0       0       0       0       0       0       0       0       0       
      +0       0       0       0
  2400 ;;      Totals:         0       0       0       0       0       0       0       0       0       0       0       0       
      +0       0       0       0
  2401 ;;Total ram usage:        0 bytes
  2402 ;; Hardware stack levels used: 1
  2403 ;; Hardware stack levels required when called: 5
  2404 ;; This function calls:
  2405 ;;		_I2C_MasterEnableRestart
  2406 ;; This function is called by:
  2407 ;;		_I2C_DO_TX
  2408 ;;		_I2C_MasterFsm
  2409 ;; This function uses a non-reentrant model
  2410 ;;
  2411                           
  2412                           	psect	text26
  2413   00190A                     __ptext26:
  2414                           	callstack 0
  2415   00190A                     _I2C_DO_SEND_RESTART_READ:
  2416                           	callstack 21
  2417   00190A                     
  2418                           ;mcc_generated_files/i2c_master.c: 452:     I2C_MasterEnableRestart();
  2419   00190A  ECA7  F00C         	call	_I2C_MasterEnableRestart	;wreg free
  2420   00190E                     
  2421                           ;mcc_generated_files/i2c_master.c: 453:     return I2C_SEND_ADR_READ;
  2422   00190E  0E01               	movlw	1
  2423   001910  0012               	return		;funcret
  2424   001912                     __end_of_I2C_DO_SEND_RESTART_READ:
  2425                           	callstack 0
  2426                           
  2427 ;; *************** function _I2C_DO_RCEN *****************
  2428 ;; Defined at:
  2429 ;;		line 402 in file "mcc_generated_files/i2c_master.c"
  2430 ;; Parameters:    Size  Location     Type
  2431 ;;		None
  2432 ;; Auto vars:     Size  Location     Type
  2433 ;;		None
  2434 ;; Return value:  Size  Location     Type
  2435 ;;                  1    wreg      enum E12602
  2436 ;; Registers used:
  2437 ;;		wreg, cstack
  2438 ;; Tracked objects:
  2439 ;;		On entry : 0/0
  2440 ;;		On exit  : 0/0
  2441 ;;		Unchanged: 0/0
  2442 ;; Data sizes:     COMRAM   BANK0   BANK1   BANK2   BANK3   BANK4   BANK5   BANK6   BANK7   BANK8   BANK9  BANK10  BANK1
      +1  BANK12  BANK13  BANK14
  2443 ;;      Params:         0       0       0       0       0       0       0       0       0       0       0       0       
      +0       0       0       0
  2444 ;;      Locals:         0       0       0       0       0       0       0       0       0       0       0       0       
      +0       0       0       0
  2445 ;;      Temps:          0       0       0       0       0       0       0       0       0       0       0       0       
      +0       0       0       0
  2446 ;;      Totals:         0       0       0       0       0       0       0       0       0       0       0       0       
      +0       0       0       0
  2447 ;;Total ram usage:        0 bytes
  2448 ;; Hardware stack levels used: 1
  2449 ;; Hardware stack levels required when called: 5
  2450 ;; This function calls:
  2451 ;;		_I2C_MasterStartRx
  2452 ;; This function is called by:
  2453 ;;		_I2C_MasterFsm
  2454 ;; This function uses a non-reentrant model
  2455 ;;
  2456                           
  2457                           	psect	text27
  2458   001890                     __ptext27:
  2459                           	callstack 0
  2460   001890                     _I2C_DO_RCEN:
  2461                           	callstack 22
  2462   001890                     
  2463                           ;mcc_generated_files/i2c_master.c: 404:     I2C_Status.addressNackCheck = 0;
  2464   001890  0100               	movlb	0	; () banked
  2465   001892  91C1               	bcf	(_I2C_Status+35)& (0+255),0,b
  2466   001894                     
  2467                           ; BSR set to: 0
  2468                           ;mcc_generated_files/i2c_master.c: 405:     I2C_MasterStartRx();
  2469   001894  EC9F  F00C         	call	_I2C_MasterStartRx	;wreg free
  2470   001898                     
  2471                           ;mcc_generated_files/i2c_master.c: 406:     return I2C_RX;
  2472   001898  0E04               	movlw	4
  2473   00189A  0012               	return		;funcret
  2474   00189C                     __end_of_I2C_DO_RCEN:
  2475                           	callstack 0
  2476                           
  2477 ;; *************** function _I2C_DO_RX *****************
  2478 ;; Defined at:
  2479 ;;		line 378 in file "mcc_generated_files/i2c_master.c"
  2480 ;; Parameters:    Size  Location     Type
  2481 ;;		None
  2482 ;; Auto vars:     Size  Location     Type
  2483 ;;		None
  2484 ;; Return value:  Size  Location     Type
  2485 ;;                  1    wreg      enum E12602
  2486 ;; Registers used:
  2487 ;;		wreg, fsr2l, fsr2h, status,2, status,0, pcl, pclath, pclatu, tosl, prodl, prodh, cstack
  2488 ;; Tracked objects:
  2489 ;;		On entry : 0/0
  2490 ;;		On exit  : 0/0
  2491 ;;		Unchanged: 0/0
  2492 ;; Data sizes:     COMRAM   BANK0   BANK1   BANK2   BANK3   BANK4   BANK5   BANK6   BANK7   BANK8   BANK9  BANK10  BANK1
      +1  BANK12  BANK13  BANK14
  2493 ;;      Params:         0       0       0       0       0       0       0       0       0       0       0       0       
      +0       0       0       0
  2494 ;;      Locals:         0       0       0       0       0       0       0       0       0       0       0       0       
      +0       0       0       0
  2495 ;;      Temps:          2       0       0       0       0       0       0       0       0       0       0       0       
      +0       0       0       0
  2496 ;;      Totals:         2       0       0       0       0       0       0       0       0       0       0       0       
      +0       0       0       0
  2497 ;;Total ram usage:        2 bytes
  2498 ;; Hardware stack levels used: 1
  2499 ;; Hardware stack levels required when called: 7
  2500 ;; This function calls:
  2501 ;;		NULL
  2502 ;;		_I2C_CallbackReturnReset
  2503 ;;		_I2C_CallbackReturnStop
  2504 ;;		_I2C_DO_RX_NACK_RESTART
  2505 ;;		_I2C_DO_RX_NACK_STOP
  2506 ;;		_I2C_MasterGetRxData
  2507 ;;		_I2C_MasterSendAck
  2508 ;;		_rd1RegCompleteHandler
  2509 ;;		_rd2RegCompleteHandler
  2510 ;;		_rdBlkRegCompleteHandler
  2511 ;;		_wr1RegCompleteHandler
  2512 ;;		_wr2RegCompleteHandler
  2513 ;; This function is called by:
  2514 ;;		_I2C_MasterFsm
  2515 ;; This function uses a non-reentrant model
  2516 ;;
  2517                           
  2518                           	psect	text28
  2519   001216                     __ptext28:
  2520                           	callstack 0
  2521   001216                     _I2C_DO_RX:
  2522                           	callstack 20
  2523   001216                     
  2524                           ;mcc_generated_files/i2c_master.c: 380:     *I2C_Status.data_ptr++ = I2C_MasterGetRxData
      +                          ();
  2525   001216  EC9D  F00C         	call	_I2C_MasterGetRxData	;wreg free
  2526   00121A  C0BB  FFD9         	movff	_I2C_Status+29,fsr2l
  2527   00121E  C0BC  FFDA         	movff	_I2C_Status+30,fsr2h
  2528   001222  6EDF               	movwf	indf2,c
  2529   001224  0100               	movlb	0	; () banked
  2530   001226  4BBB               	infsnz	(_I2C_Status+29)& (0+255),f,b
  2531   001228  2BBC               	incf	(_I2C_Status+30)& (0+255),f,b
  2532   00122A                     
  2533                           ; BSR set to: 0
  2534                           ;mcc_generated_files/i2c_master.c: 381:     if(--I2C_Status.data_length)
  2535   00122A  07BD               	decf	(_I2C_Status+31)& (0+255),f,b
  2536   00122C  A0D8               	btfss	status,0,c
  2537   00122E  07BE               	decf	(_I2C_Status+32)& (0+255),f,b
  2538   001230  51BD               	movf	(_I2C_Status+31)& (0+255),w,b
  2539   001232  11BE               	iorwf	(_I2C_Status+32)& (0+255),w,b
  2540   001234  B4D8               	btfsc	status,2,c
  2541   001236  EF1F  F009         	goto	u1351
  2542   00123A  EF21  F009         	goto	u1350
  2543   00123E                     u1351:
  2544   00123E  EF26  F009         	goto	l294
  2545   001242                     u1350:
  2546   001242                     
  2547                           ; BSR set to: 0
  2548                           ;mcc_generated_files/i2c_master.c: 382:     {;mcc_generated_files/i2c_master.c: 383:    
      +                               I2C_MasterSendAck();
  2549   001242  EC8D  F00C         	call	_I2C_MasterSendAck	;wreg free
  2550   001246                     
  2551                           ;mcc_generated_files/i2c_master.c: 384:         return I2C_RCEN;
  2552   001246  0E05               	movlw	5
  2553   001248  EF5E  F009         	goto	l295
  2554   00124C                     l294:
  2555                           
  2556                           ; BSR set to: 0
  2557                           ;mcc_generated_files/i2c_master.c: 387:     {;mcc_generated_files/i2c_master.c: 388:    
      +                               I2C_Status.bufferFree = 1;
  2558   00124C  87C1               	bsf	(_I2C_Status+35)& (0+255),3,b
  2559                           
  2560                           ;mcc_generated_files/i2c_master.c: 389:         switch(I2C_Status.callbackTable[I2C_DATA
      +                          _COMPLETE](I2C_Status.callbackPayload[I2C_DATA_COMPLETE]))
  2561   00124E  EF31  F009         	goto	l3268
  2562   001252                     l3258:
  2563                           
  2564                           ;mcc_generated_files/i2c_master.c: 393:                 return I2C_DO_RX_NACK_RESTART();
  2565   001252  EC6D  F00C         	call	_I2C_DO_RX_NACK_RESTART	;wreg free
  2566   001256  EF5E  F009         	goto	l295
  2567   00125A                     l3262:
  2568                           
  2569                           ;mcc_generated_files/i2c_master.c: 397:                 return I2C_DO_RX_NACK_STOP();
  2570   00125A  EC71  F00C         	call	_I2C_DO_RX_NACK_STOP	;wreg free
  2571   00125E  EF5E  F009         	goto	l295
  2572   001262                     l3268:
  2573                           
  2574                           ; BSR set to: 0
  2575   001262  C0AA  F00E         	movff	_I2C_Status+12,I2C_CallbackReturnReset@funPtr
  2576   001266  C0AB  F00F         	movff	_I2C_Status+13,I2C_CallbackReturnReset@funPtr+1
  2577   00126A  D802               	call	u1368
  2578   00126C  EF42  F009         	goto	u1369
  2579   001270                     u1368:
  2580   001270  0005               	push	
  2581   001272  6EFA               	movwf	pclath,c
  2582   001274  519E               	movf	_I2C_Status& (0+255),w,b
  2583   001276  6EFD               	movwf	tosl,c
  2584   001278  519F               	movf	(_I2C_Status+1)& (0+255),w,b
  2585   00127A  6EFE               	movwf	tosh,c
  2586   00127C  50F8               	movf	tblptru,w,c
  2587   00127E  6EFF               	movwf	tosu,c
  2588   001280  50FA               	movf	pclath,w,c
  2589   001282  0012               	return		;indir
  2590   001284                     u1369:
  2591   001284  6E11               	movwf	??_I2C_DO_RX^0,c
  2592   001286  6A12               	clrf	(??_I2C_DO_RX+1)^0,c
  2593                           
  2594                           ; Switch on 2 bytes has been partitioned into a top level switch of size 1, and 1 sub-sw
      +                          itches
  2595                           ; Switch size 1, requested type "simple"
  2596                           ; Number of cases is 1, Range of values is 0 to 0
  2597                           ; switch strategies available:
  2598                           ; Name         Instructions Cycles
  2599                           ; simple_byte            4     3 (average)
  2600                           ;	Chosen strategy is simple_byte
  2601   001288  5012               	movf	(??_I2C_DO_RX+1)^0,w,c
  2602   00128A  0A00               	xorlw	0	; case 0
  2603   00128C  B4D8               	btfsc	status,2,c
  2604   00128E  EF4B  F009         	goto	l3792
  2605   001292  EF2D  F009         	goto	l3262
  2606   001296                     l3792:
  2607                           
  2608                           ; Switch size 1, requested type "simple"
  2609                           ; Number of cases is 4, Range of values is 1 to 4
  2610                           ; switch strategies available:
  2611                           ; Name         Instructions Cycles
  2612                           ; simple_byte           13     7 (average)
  2613                           ;	Chosen strategy is simple_byte
  2614   001296  5011               	movf	??_I2C_DO_RX^0,w,c
  2615   001298  0A01               	xorlw	1	; case 1
  2616   00129A  B4D8               	btfsc	status,2,c
  2617   00129C  EF2D  F009         	goto	l3262
  2618   0012A0  0A03               	xorlw	3	; case 2
  2619   0012A2  B4D8               	btfsc	status,2,c
  2620   0012A4  EF29  F009         	goto	l3258
  2621   0012A8  0A01               	xorlw	1	; case 3
  2622   0012AA  B4D8               	btfsc	status,2,c
  2623   0012AC  EF29  F009         	goto	l3258
  2624   0012B0  0A07               	xorlw	7	; case 4
  2625   0012B2  B4D8               	btfsc	status,2,c
  2626   0012B4  EF2D  F009         	goto	l3262
  2627   0012B8  EF2D  F009         	goto	l3262
  2628   0012BC                     l295:
  2629   0012BC  0012               	return		;funcret
  2630   0012BE                     __end_of_I2C_DO_RX:
  2631                           	callstack 0
  2632                           
  2633 ;; *************** function _I2C_DO_TX *****************
  2634 ;; Defined at:
  2635 ;;		line 354 in file "mcc_generated_files/i2c_master.c"
  2636 ;; Parameters:    Size  Location     Type
  2637 ;;		None
  2638 ;; Auto vars:     Size  Location     Type
  2639 ;;		None
  2640 ;; Return value:  Size  Location     Type
  2641 ;;                  1    wreg      enum E12602
  2642 ;; Registers used:
  2643 ;;		wreg, fsr2l, fsr2h, status,2, status,0, pcl, pclath, pclatu, tosl, prodl, prodh, cstack
  2644 ;; Tracked objects:
  2645 ;;		On entry : 0/0
  2646 ;;		On exit  : 0/0
  2647 ;;		Unchanged: 0/0
  2648 ;; Data sizes:     COMRAM   BANK0   BANK1   BANK2   BANK3   BANK4   BANK5   BANK6   BANK7   BANK8   BANK9  BANK10  BANK1
      +1  BANK12  BANK13  BANK14
  2649 ;;      Params:         0       0       0       0       0       0       0       0       0       0       0       0       
      +0       0       0       0
  2650 ;;      Locals:         0       0       0       0       0       0       0       0       0       0       0       0       
      +0       0       0       0
  2651 ;;      Temps:          2       0       0       0       0       0       0       0       0       0       0       0       
      +0       0       0       0
  2652 ;;      Totals:         2       0       0       0       0       0       0       0       0       0       0       0       
      +0       0       0       0
  2653 ;;Total ram usage:        2 bytes
  2654 ;; Hardware stack levels used: 1
  2655 ;; Hardware stack levels required when called: 7
  2656 ;; This function calls:
  2657 ;;		NULL
  2658 ;;		_I2C_CallbackReturnReset
  2659 ;;		_I2C_CallbackReturnStop
  2660 ;;		_I2C_DO_SEND_RESTART_READ
  2661 ;;		_I2C_DO_SEND_RESTART_WRITE
  2662 ;;		_I2C_DO_SEND_STOP
  2663 ;;		_I2C_MasterIsNack
  2664 ;;		_I2C_MasterSendTxData
  2665 ;;		_rd1RegCompleteHandler
  2666 ;;		_rd2RegCompleteHandler
  2667 ;;		_rdBlkRegCompleteHandler
  2668 ;;		_wr1RegCompleteHandler
  2669 ;;		_wr2RegCompleteHandler
  2670 ;; This function is called by:
  2671 ;;		_I2C_MasterFsm
  2672 ;; This function uses a non-reentrant model
  2673 ;;
  2674                           
  2675                           	psect	text29
  2676   00109E                     __ptext29:
  2677                           	callstack 0
  2678   00109E                     _I2C_DO_TX:
  2679                           	callstack 20
  2680   00109E                     
  2681                           ;mcc_generated_files/i2c_master.c: 356:     if(I2C_MasterIsNack())
  2682   00109E  EC17  F00C         	call	_I2C_MasterIsNack	;wreg free
  2683   0010A2  0900               	iorlw	0
  2684   0010A4  B4D8               	btfsc	status,2,c
  2685   0010A6  EF57  F008         	goto	u1321
  2686   0010AA  EF59  F008         	goto	u1320
  2687   0010AE                     u1321:
  2688   0010AE  EF96  F008         	goto	l278
  2689   0010B2                     u1320:
  2690   0010B2  EF67  F008         	goto	l3228
  2691   0010B6                     l3214:
  2692                           
  2693                           ;mcc_generated_files/i2c_master.c: 361:                 return I2C_DO_SEND_RESTART_READ(
      +                          );
  2694   0010B6  EC85  F00C         	call	_I2C_DO_SEND_RESTART_READ	;wreg free
  2695   0010BA  EFB2  F008         	goto	l281
  2696   0010BE                     l3218:
  2697                           
  2698                           ;mcc_generated_files/i2c_master.c: 363:                   return I2C_DO_SEND_RESTART_WRI
      +                          TE();
  2699   0010BE  EC81  F00C         	call	_I2C_DO_SEND_RESTART_WRITE	;wreg free
  2700   0010C2  EFB2  F008         	goto	l281
  2701   0010C6                     l3222:
  2702                           
  2703                           ;mcc_generated_files/i2c_master.c: 367:                 return I2C_DO_SEND_STOP();
  2704   0010C6  EC79  F00C         	call	_I2C_DO_SEND_STOP	;wreg free
  2705   0010CA  EFB2  F008         	goto	l281
  2706   0010CE                     l3228:
  2707   0010CE  C0B0  F00E         	movff	_I2C_Status+18,I2C_CallbackReturnReset@funPtr
  2708   0010D2  C0B1  F00F         	movff	_I2C_Status+19,I2C_CallbackReturnReset@funPtr+1
  2709   0010D6  EE20  F0A4         	lfsr	2,_I2C_Status+6
  2710   0010DA  D802               	call	u1338
  2711   0010DC  EF7A  F008         	goto	u1339
  2712   0010E0                     u1338:
  2713   0010E0  0005               	push	
  2714   0010E2  6EFA               	movwf	pclath,c
  2715   0010E4  50DE               	movf	postinc2,w,c
  2716   0010E6  6EFD               	movwf	tosl,c
  2717   0010E8  50DE               	movf	postinc2,w,c
  2718   0010EA  6EFE               	movwf	tosh,c
  2719   0010EC  50F8               	movf	tblptru,w,c
  2720   0010EE  6EFF               	movwf	tosu,c
  2721   0010F0  50FA               	movf	pclath,w,c
  2722   0010F2  0012               	return		;indir
  2723   0010F4                     u1339:
  2724   0010F4  6E11               	movwf	??_I2C_DO_TX^0,c
  2725   0010F6  6A12               	clrf	(??_I2C_DO_TX+1)^0,c
  2726                           
  2727                           ; Switch on 2 bytes has been partitioned into a top level switch of size 1, and 1 sub-sw
      +                          itches
  2728                           ; Switch size 1, requested type "simple"
  2729                           ; Number of cases is 1, Range of values is 0 to 0
  2730                           ; switch strategies available:
  2731                           ; Name         Instructions Cycles
  2732                           ; simple_byte            4     3 (average)
  2733                           ;	Chosen strategy is simple_byte
  2734   0010F8  5012               	movf	(??_I2C_DO_TX+1)^0,w,c
  2735   0010FA  0A00               	xorlw	0	; case 0
  2736   0010FC  B4D8               	btfsc	status,2,c
  2737   0010FE  EF83  F008         	goto	l3794
  2738   001102  EF63  F008         	goto	l3222
  2739   001106                     l3794:
  2740                           
  2741                           ; Switch size 1, requested type "simple"
  2742                           ; Number of cases is 4, Range of values is 1 to 4
  2743                           ; switch strategies available:
  2744                           ; Name         Instructions Cycles
  2745                           ; simple_byte           13     7 (average)
  2746                           ;	Chosen strategy is simple_byte
  2747   001106  5011               	movf	??_I2C_DO_TX^0,w,c
  2748   001108  0A01               	xorlw	1	; case 1
  2749   00110A  B4D8               	btfsc	status,2,c
  2750   00110C  EF63  F008         	goto	l3222
  2751   001110  0A03               	xorlw	3	; case 2
  2752   001112  B4D8               	btfsc	status,2,c
  2753   001114  EF5B  F008         	goto	l3214
  2754   001118  0A01               	xorlw	1	; case 3
  2755   00111A  B4D8               	btfsc	status,2,c
  2756   00111C  EF5F  F008         	goto	l3218
  2757   001120  0A07               	xorlw	7	; case 4
  2758   001122  B4D8               	btfsc	status,2,c
  2759   001124  EF63  F008         	goto	l3222
  2760   001128  EF63  F008         	goto	l3222
  2761   00112C                     l278:
  2762                           
  2763                           ;mcc_generated_files/i2c_master.c: 371:     {;mcc_generated_files/i2c_master.c: 372:    
      +                               I2C_Status.addressNackCheck = 0;
  2764   00112C  0100               	movlb	0	; () banked
  2765   00112E  91C1               	bcf	(_I2C_Status+35)& (0+255),0,b
  2766   001130                     
  2767                           ; BSR set to: 0
  2768                           ;mcc_generated_files/i2c_master.c: 373:         I2C_MasterSendTxData(*I2C_Status.data_pt
      +                          r++);
  2769   001130  C0BB  FFD9         	movff	_I2C_Status+29,fsr2l
  2770   001134  C0BC  FFDA         	movff	_I2C_Status+30,fsr2h
  2771   001138  4BBB               	infsnz	(_I2C_Status+29)& (0+255),f,b
  2772   00113A  2BBC               	incf	(_I2C_Status+30)& (0+255),f,b
  2773   00113C  50DF               	movf	indf2,w,c
  2774   00113E  EC89  F00C         	call	_I2C_MasterSendTxData
  2775   001142                     
  2776                           ;mcc_generated_files/i2c_master.c: 374:         return (--I2C_Status.data_length)?I2C_TX
      +                          :I2C_TX_EMPTY;
  2777   001142  0100               	movlb	0	; () banked
  2778   001144  07BD               	decf	(_I2C_Status+31)& (0+255),f,b
  2779   001146  A0D8               	btfss	status,0,c
  2780   001148  07BE               	decf	(_I2C_Status+32)& (0+255),f,b
  2781   00114A  51BD               	movf	(_I2C_Status+31)& (0+255),w,b
  2782   00114C  11BE               	iorwf	(_I2C_Status+32)& (0+255),w,b
  2783   00114E  A4D8               	btfss	status,2,c
  2784   001150  EFAC  F008         	goto	u1341
  2785   001154  EFAE  F008         	goto	u1340
  2786   001158                     u1341:
  2787   001158  EFB1  F008         	goto	l3236
  2788   00115C                     u1340:
  2789   00115C                     
  2790                           ; BSR set to: 0
  2791   00115C  0E06               	movlw	6
  2792   00115E  EFB2  F008         	goto	l281
  2793   001162                     l3236:
  2794                           
  2795                           ; BSR set to: 0
  2796   001162  0E03               	movlw	3
  2797   001164                     l281:
  2798   001164  0012               	return		;funcret
  2799   001166                     __end_of_I2C_DO_TX:
  2800                           	callstack 0
  2801                           
  2802 ;; *************** function _I2C_DO_SEND_ADR_WRITE *****************
  2803 ;; Defined at:
  2804 ;;		line 347 in file "mcc_generated_files/i2c_master.c"
  2805 ;; Parameters:    Size  Location     Type
  2806 ;;		None
  2807 ;; Auto vars:     Size  Location     Type
  2808 ;;		None
  2809 ;; Return value:  Size  Location     Type
  2810 ;;                  1    wreg      enum E12602
  2811 ;; Registers used:
  2812 ;;		wreg, status,2, status,0, cstack
  2813 ;; Tracked objects:
  2814 ;;		On entry : 0/0
  2815 ;;		On exit  : 0/0
  2816 ;;		Unchanged: 0/0
  2817 ;; Data sizes:     COMRAM   BANK0   BANK1   BANK2   BANK3   BANK4   BANK5   BANK6   BANK7   BANK8   BANK9  BANK10  BANK1
      +1  BANK12  BANK13  BANK14
  2818 ;;      Params:         0       0       0       0       0       0       0       0       0       0       0       0       
      +0       0       0       0
  2819 ;;      Locals:         0       0       0       0       0       0       0       0       0       0       0       0       
      +0       0       0       0
  2820 ;;      Temps:          0       0       0       0       0       0       0       0       0       0       0       0       
      +0       0       0       0
  2821 ;;      Totals:         0       0       0       0       0       0       0       0       0       0       0       0       
      +0       0       0       0
  2822 ;;Total ram usage:        0 bytes
  2823 ;; Hardware stack levels used: 1
  2824 ;; Hardware stack levels required when called: 5
  2825 ;; This function calls:
  2826 ;;		_I2C_MasterSendTxData
  2827 ;; This function is called by:
  2828 ;;		_I2C_MasterFsm
  2829 ;; This function uses a non-reentrant model
  2830 ;;
  2831                           
  2832                           	psect	text30
  2833   001864                     __ptext30:
  2834                           	callstack 0
  2835   001864                     _I2C_DO_SEND_ADR_WRITE:
  2836                           	callstack 22
  2837   001864                     
  2838                           ;mcc_generated_files/i2c_master.c: 349:     I2C_Status.addressNackCheck = 1;
  2839   001864  0100               	movlb	0	; () banked
  2840   001866  81C1               	bsf	(_I2C_Status+35)& (0+255),0,b
  2841   001868                     
  2842                           ; BSR set to: 0
  2843                           ;mcc_generated_files/i2c_master.c: 350:     I2C_MasterSendTxData((uint8_t) (I2C_Status.a
      +                          ddress << 1));
  2844   001868  51BA               	movf	(_I2C_Status+28)& (0+255),w,b
  2845   00186A  25BA               	addwf	(_I2C_Status+28)& (0+255),w,b
  2846   00186C  EC89  F00C         	call	_I2C_MasterSendTxData
  2847   001870                     
  2848                           ;mcc_generated_files/i2c_master.c: 351:     return I2C_TX;
  2849   001870  0E03               	movlw	3
  2850   001872  0012               	return		;funcret
  2851   001874                     __end_of_I2C_DO_SEND_ADR_WRITE:
  2852                           	callstack 0
  2853                           
  2854 ;; *************** function _I2C_DO_SEND_ADR_READ *****************
  2855 ;; Defined at:
  2856 ;;		line 340 in file "mcc_generated_files/i2c_master.c"
  2857 ;; Parameters:    Size  Location     Type
  2858 ;;		None
  2859 ;; Auto vars:     Size  Location     Type
  2860 ;;		None
  2861 ;; Return value:  Size  Location     Type
  2862 ;;                  1    wreg      enum E12602
  2863 ;; Registers used:
  2864 ;;		wreg, status,0, cstack
  2865 ;; Tracked objects:
  2866 ;;		On entry : 0/0
  2867 ;;		On exit  : 0/0
  2868 ;;		Unchanged: 0/0
  2869 ;; Data sizes:     COMRAM   BANK0   BANK1   BANK2   BANK3   BANK4   BANK5   BANK6   BANK7   BANK8   BANK9  BANK10  BANK1
      +1  BANK12  BANK13  BANK14
  2870 ;;      Params:         0       0       0       0       0       0       0       0       0       0       0       0       
      +0       0       0       0
  2871 ;;      Locals:         0       0       0       0       0       0       0       0       0       0       0       0       
      +0       0       0       0
  2872 ;;      Temps:          0       0       0       0       0       0       0       0       0       0       0       0       
      +0       0       0       0
  2873 ;;      Totals:         0       0       0       0       0       0       0       0       0       0       0       0       
      +0       0       0       0
  2874 ;;Total ram usage:        0 bytes
  2875 ;; Hardware stack levels used: 1
  2876 ;; Hardware stack levels required when called: 5
  2877 ;; This function calls:
  2878 ;;		_I2C_MasterSendTxData
  2879 ;; This function is called by:
  2880 ;;		_I2C_MasterFsm
  2881 ;; This function uses a non-reentrant model
  2882 ;;
  2883                           
  2884                           	psect	text31
  2885   001874                     __ptext31:
  2886                           	callstack 0
  2887   001874                     _I2C_DO_SEND_ADR_READ:
  2888                           	callstack 22
  2889   001874                     
  2890                           ;mcc_generated_files/i2c_master.c: 342:     I2C_Status.addressNackCheck = 1;
  2891   001874  0100               	movlb	0	; () banked
  2892   001876  81C1               	bsf	(_I2C_Status+35)& (0+255),0,b
  2893   001878                     
  2894                           ; BSR set to: 0
  2895                           ;mcc_generated_files/i2c_master.c: 343:     I2C_MasterSendTxData((uint8_t) (I2C_Status.a
      +                          ddress << 1 | 1));
  2896   001878  80D8               	bsf	status,0,c
  2897   00187A  35BA               	rlcf	(_I2C_Status+28)& (0+255),w,b
  2898   00187C  EC89  F00C         	call	_I2C_MasterSendTxData
  2899   001880                     
  2900                           ;mcc_generated_files/i2c_master.c: 344:     return I2C_RCEN;
  2901   001880  0E05               	movlw	5
  2902   001882  0012               	return		;funcret
  2903   001884                     __end_of_I2C_DO_SEND_ADR_READ:
  2904                           	callstack 0
  2905                           
  2906 ;; *************** function _I2C_DO_IDLE *****************
  2907 ;; Defined at:
  2908 ;;		line 333 in file "mcc_generated_files/i2c_master.c"
  2909 ;; Parameters:    Size  Location     Type
  2910 ;;		None
  2911 ;; Auto vars:     Size  Location     Type
  2912 ;;		None
  2913 ;; Return value:  Size  Location     Type
  2914 ;;                  1    wreg      enum E12602
  2915 ;; Registers used:
  2916 ;;		wreg, status,2
  2917 ;; Tracked objects:
  2918 ;;		On entry : 0/0
  2919 ;;		On exit  : 0/0
  2920 ;;		Unchanged: 0/0
  2921 ;; Data sizes:     COMRAM   BANK0   BANK1   BANK2   BANK3   BANK4   BANK5   BANK6   BANK7   BANK8   BANK9  BANK10  BANK1
      +1  BANK12  BANK13  BANK14
  2922 ;;      Params:         0       0       0       0       0       0       0       0       0       0       0       0       
      +0       0       0       0
  2923 ;;      Locals:         0       0       0       0       0       0       0       0       0       0       0       0       
      +0       0       0       0
  2924 ;;      Temps:          0       0       0       0       0       0       0       0       0       0       0       0       
      +0       0       0       0
  2925 ;;      Totals:         0       0       0       0       0       0       0       0       0       0       0       0       
      +0       0       0       0
  2926 ;;Total ram usage:        0 bytes
  2927 ;; Hardware stack levels used: 1
  2928 ;; Hardware stack levels required when called: 4
  2929 ;; This function calls:
  2930 ;;		Nothing
  2931 ;; This function is called by:
  2932 ;;		_I2C_MasterFsm
  2933 ;; This function uses a non-reentrant model
  2934 ;;
  2935                           
  2936                           	psect	text32
  2937   00189C                     __ptext32:
  2938                           	callstack 0
  2939   00189C                     _I2C_DO_IDLE:
  2940                           	callstack 23
  2941   00189C                     
  2942                           ;mcc_generated_files/i2c_master.c: 335:     I2C_Status.busy = 0;
  2943   00189C  0100               	movlb	0	; () banked
  2944   00189E  93C1               	bcf	(_I2C_Status+35)& (0+255),1,b
  2945   0018A0                     
  2946                           ; BSR set to: 0
  2947                           ;mcc_generated_files/i2c_master.c: 336:     I2C_Status.error = I2C_NOERR;
  2948   0018A0  0E00               	movlw	0
  2949   0018A2  6FC0               	movwf	(_I2C_Status+34)& (0+255),b
  2950   0018A4                     
  2951                           ; BSR set to: 0
  2952                           ;mcc_generated_files/i2c_master.c: 337:     return I2C_RESET;
  2953   0018A4  0E0E               	movlw	14
  2954   0018A6                     
  2955                           ; BSR set to: 0
  2956   0018A6  0012               	return		;funcret
  2957   0018A8                     __end_of_I2C_DO_IDLE:
  2958                           	callstack 0
  2959                           
  2960 ;; *************** function _I2C_DO_TX_EMPTY *****************
  2961 ;; Defined at:
  2962 ;;		line 409 in file "mcc_generated_files/i2c_master.c"
  2963 ;; Parameters:    Size  Location     Type
  2964 ;;		None
  2965 ;; Auto vars:     Size  Location     Type
  2966 ;;		None
  2967 ;; Return value:  Size  Location     Type
  2968 ;;                  1    wreg      enum E12602
  2969 ;; Registers used:
  2970 ;;		wreg, fsr2l, fsr2h, status,2, status,0, pcl, pclath, pclatu, tosl, prodl, prodh, cstack
  2971 ;; Tracked objects:
  2972 ;;		On entry : 0/0
  2973 ;;		On exit  : 0/0
  2974 ;;		Unchanged: 0/0
  2975 ;; Data sizes:     COMRAM   BANK0   BANK1   BANK2   BANK3   BANK4   BANK5   BANK6   BANK7   BANK8   BANK9  BANK10  BANK1
      +1  BANK12  BANK13  BANK14
  2976 ;;      Params:         0       0       0       0       0       0       0       0       0       0       0       0       
      +0       0       0       0
  2977 ;;      Locals:         0       0       0       0       0       0       0       0       0       0       0       0       
      +0       0       0       0
  2978 ;;      Temps:          2       0       0       0       0       0       0       0       0       0       0       0       
      +0       0       0       0
  2979 ;;      Totals:         2       0       0       0       0       0       0       0       0       0       0       0       
      +0       0       0       0
  2980 ;;Total ram usage:        2 bytes
  2981 ;; Hardware stack levels used: 1
  2982 ;; Hardware stack levels required when called: 7
  2983 ;; This function calls:
  2984 ;;		NULL
  2985 ;;		_I2C_CallbackReturnReset
  2986 ;;		_I2C_CallbackReturnStop
  2987 ;;		_I2C_DO_SEND_RESTART
  2988 ;;		_I2C_DO_SEND_STOP
  2989 ;;		_I2C_MasterSetIrq
  2990 ;;		_rd1RegCompleteHandler
  2991 ;;		_rd2RegCompleteHandler
  2992 ;;		_rdBlkRegCompleteHandler
  2993 ;;		_wr1RegCompleteHandler
  2994 ;;		_wr2RegCompleteHandler
  2995 ;; This function is called by:
  2996 ;;		_I2C_MasterFsm
  2997 ;; This function uses a non-reentrant model
  2998 ;;
  2999                           
  3000                           	psect	text33
  3001   00134C                     __ptext33:
  3002                           	callstack 0
  3003   00134C                     _I2C_DO_TX_EMPTY:
  3004                           	callstack 20
  3005   00134C                     
  3006                           ;mcc_generated_files/i2c_master.c: 411:     I2C_Status.bufferFree = 1;
  3007   00134C  0100               	movlb	0	; () banked
  3008   00134E  87C1               	bsf	(_I2C_Status+35)& (0+255),3,b
  3009                           
  3010                           ;mcc_generated_files/i2c_master.c: 412:     switch(I2C_Status.callbackTable[I2C_DATA_COM
      +                          PLETE](I2C_Status.callbackPayload[I2C_DATA_COMPLETE]))
  3011   001350  EFB7  F009         	goto	l3300
  3012   001354                     l3284:
  3013                           
  3014                           ;mcc_generated_files/i2c_master.c: 416:             return I2C_DO_SEND_RESTART();
  3015   001354  EC7D  F00C         	call	_I2C_DO_SEND_RESTART	;wreg free
  3016   001358  EFE4  F009         	goto	l312
  3017   00135C                     l3288:
  3018                           
  3019                           ;mcc_generated_files/i2c_master.c: 418:             I2C_MasterSetIrq();
  3020   00135C  EC9B  F00C         	call	_I2C_MasterSetIrq	;wreg free
  3021   001360                     
  3022                           ;mcc_generated_files/i2c_master.c: 419:             return I2C_TX;
  3023   001360  0E03               	movlw	3
  3024   001362  EFE4  F009         	goto	l312
  3025   001366                     l3294:
  3026                           
  3027                           ;mcc_generated_files/i2c_master.c: 422:             return I2C_DO_SEND_STOP();
  3028   001366  EC79  F00C         	call	_I2C_DO_SEND_STOP	;wreg free
  3029   00136A  EFE4  F009         	goto	l312
  3030   00136E                     l3300:
  3031                           
  3032                           ; BSR set to: 0
  3033   00136E  C0AA  F00E         	movff	_I2C_Status+12,I2C_CallbackReturnReset@funPtr
  3034   001372  C0AB  F00F         	movff	_I2C_Status+13,I2C_CallbackReturnReset@funPtr+1
  3035   001376  D802               	call	u1378
  3036   001378  EFC8  F009         	goto	u1379
  3037   00137C                     u1378:
  3038   00137C  0005               	push	
  3039   00137E  6EFA               	movwf	pclath,c
  3040   001380  519E               	movf	_I2C_Status& (0+255),w,b
  3041   001382  6EFD               	movwf	tosl,c
  3042   001384  519F               	movf	(_I2C_Status+1)& (0+255),w,b
  3043   001386  6EFE               	movwf	tosh,c
  3044   001388  50F8               	movf	tblptru,w,c
  3045   00138A  6EFF               	movwf	tosu,c
  3046   00138C  50FA               	movf	pclath,w,c
  3047   00138E  0012               	return		;indir
  3048   001390                     u1379:
  3049   001390  6E11               	movwf	??_I2C_DO_TX_EMPTY^0,c
  3050   001392  6A12               	clrf	(??_I2C_DO_TX_EMPTY+1)^0,c
  3051                           
  3052                           ; Switch on 2 bytes has been partitioned into a top level switch of size 1, and 1 sub-sw
      +                          itches
  3053                           ; Switch size 1, requested type "simple"
  3054                           ; Number of cases is 1, Range of values is 0 to 0
  3055                           ; switch strategies available:
  3056                           ; Name         Instructions Cycles
  3057                           ; simple_byte            4     3 (average)
  3058                           ;	Chosen strategy is simple_byte
  3059   001394  5012               	movf	(??_I2C_DO_TX_EMPTY+1)^0,w,c
  3060   001396  0A00               	xorlw	0	; case 0
  3061   001398  B4D8               	btfsc	status,2,c
  3062   00139A  EFD1  F009         	goto	l3796
  3063   00139E  EFB3  F009         	goto	l3294
  3064   0013A2                     l3796:
  3065                           
  3066                           ; Switch size 1, requested type "simple"
  3067                           ; Number of cases is 4, Range of values is 1 to 4
  3068                           ; switch strategies available:
  3069                           ; Name         Instructions Cycles
  3070                           ; simple_byte           13     7 (average)
  3071                           ;	Chosen strategy is simple_byte
  3072   0013A2  5011               	movf	??_I2C_DO_TX_EMPTY^0,w,c
  3073   0013A4  0A01               	xorlw	1	; case 1
  3074   0013A6  B4D8               	btfsc	status,2,c
  3075   0013A8  EFB3  F009         	goto	l3294
  3076   0013AC  0A03               	xorlw	3	; case 2
  3077   0013AE  B4D8               	btfsc	status,2,c
  3078   0013B0  EFAA  F009         	goto	l3284
  3079   0013B4  0A01               	xorlw	1	; case 3
  3080   0013B6  B4D8               	btfsc	status,2,c
  3081   0013B8  EFAA  F009         	goto	l3284
  3082   0013BC  0A07               	xorlw	7	; case 4
  3083   0013BE  B4D8               	btfsc	status,2,c
  3084   0013C0  EFAE  F009         	goto	l3288
  3085   0013C4  EFB3  F009         	goto	l3294
  3086   0013C8                     l312:
  3087   0013C8  0012               	return		;funcret
  3088   0013CA                     __end_of_I2C_DO_TX_EMPTY:
  3089                           	callstack 0
  3090                           
  3091 ;; *************** function _I2C_MasterSetIrq *****************
  3092 ;; Defined at:
  3093 ;;		line 645 in file "mcc_generated_files/i2c_master.c"
  3094 ;; Parameters:    Size  Location     Type
  3095 ;;		None
  3096 ;; Auto vars:     Size  Location     Type
  3097 ;;		None
  3098 ;; Return value:  Size  Location     Type
  3099 ;;                  1    wreg      void 
  3100 ;; Registers used:
  3101 ;;		None
  3102 ;; Tracked objects:
  3103 ;;		On entry : 0/0
  3104 ;;		On exit  : 0/0
  3105 ;;		Unchanged: 0/0
  3106 ;; Data sizes:     COMRAM   BANK0   BANK1   BANK2   BANK3   BANK4   BANK5   BANK6   BANK7   BANK8   BANK9  BANK10  BANK1
      +1  BANK12  BANK13  BANK14
  3107 ;;      Params:         0       0       0       0       0       0       0       0       0       0       0       0       
      +0       0       0       0
  3108 ;;      Locals:         0       0       0       0       0       0       0       0       0       0       0       0       
      +0       0       0       0
  3109 ;;      Temps:          0       0       0       0       0       0       0       0       0       0       0       0       
      +0       0       0       0
  3110 ;;      Totals:         0       0       0       0       0       0       0       0       0       0       0       0       
      +0       0       0       0
  3111 ;;Total ram usage:        0 bytes
  3112 ;; Hardware stack levels used: 1
  3113 ;; Hardware stack levels required when called: 4
  3114 ;; This function calls:
  3115 ;;		Nothing
  3116 ;; This function is called by:
  3117 ;;		_I2C_DO_TX_EMPTY
  3118 ;; This function uses a non-reentrant model
  3119 ;;
  3120                           
  3121                           	psect	text34
  3122   001936                     __ptext34:
  3123                           	callstack 0
  3124   001936                     _I2C_MasterSetIrq:
  3125                           	callstack 22
  3126   001936                     
  3127                           ;mcc_generated_files/i2c_master.c: 647:     PIR1bits.SSPIF = 1;
  3128   001936  869E               	bsf	158,3,c	;volatile
  3129   001938  0012               	return		;funcret
  3130   00193A                     __end_of_I2C_MasterSetIrq:
  3131                           	callstack 0
  3132                           
  3133 ;; *************** function _I2C_MasterIsNack *****************
  3134 ;; Defined at:
  3135 ;;		line 598 in file "mcc_generated_files/i2c_master.c"
  3136 ;; Parameters:    Size  Location     Type
  3137 ;;		None
  3138 ;; Auto vars:     Size  Location     Type
  3139 ;;		None
  3140 ;; Return value:  Size  Location     Type
  3141 ;;                  1    wreg      _Bool 
  3142 ;; Registers used:
  3143 ;;		wreg
  3144 ;; Tracked objects:
  3145 ;;		On entry : 0/0
  3146 ;;		On exit  : 0/0
  3147 ;;		Unchanged: 0/0
  3148 ;; Data sizes:     COMRAM   BANK0   BANK1   BANK2   BANK3   BANK4   BANK5   BANK6   BANK7   BANK8   BANK9  BANK10  BANK1
      +1  BANK12  BANK13  BANK14
  3149 ;;      Params:         0       0       0       0       0       0       0       0       0       0       0       0       
      +0       0       0       0
  3150 ;;      Locals:         0       0       0       0       0       0       0       0       0       0       0       0       
      +0       0       0       0
  3151 ;;      Temps:          0       0       0       0       0       0       0       0       0       0       0       0       
      +0       0       0       0
  3152 ;;      Totals:         0       0       0       0       0       0       0       0       0       0       0       0       
      +0       0       0       0
  3153 ;;Total ram usage:        0 bytes
  3154 ;; Hardware stack levels used: 1
  3155 ;; Hardware stack levels required when called: 4
  3156 ;; This function calls:
  3157 ;;		Nothing
  3158 ;; This function is called by:
  3159 ;;		_I2C_MasterFsm
  3160 ;;		_I2C_DO_TX
  3161 ;; This function uses a non-reentrant model
  3162 ;;
  3163                           
  3164                           	psect	text35
  3165   00182E                     __ptext35:
  3166                           	callstack 0
  3167   00182E                     _I2C_MasterIsNack:
  3168                           	callstack 23
  3169   00182E                     
  3170                           ;mcc_generated_files/i2c_master.c: 600:     return SSPCON2bits.ACKSTAT;
  3171   00182E  BCC5               	btfsc	197,6,c	;volatile
  3172   001830  EF1C  F00C         	goto	u1311
  3173   001834  EF1F  F00C         	goto	u1310
  3174   001838                     u1311:
  3175   001838  0E01               	movlw	1
  3176   00183A  EF20  F00C         	goto	u1316
  3177   00183E                     u1310:
  3178   00183E  0E00               	movlw	0
  3179   001840                     u1316:
  3180   001840  0012               	return		;funcret
  3181   001842                     __end_of_I2C_MasterIsNack:
  3182                           	callstack 0
  3183                           
  3184 ;; *************** function _I2C_MasterSendTxData *****************
  3185 ;; Defined at:
  3186 ;;		line 568 in file "mcc_generated_files/i2c_master.c"
  3187 ;; Parameters:    Size  Location     Type
  3188 ;;  data            1    wreg     unsigned char 
  3189 ;; Auto vars:     Size  Location     Type
  3190 ;;  data            1    4[COMRAM] unsigned char 
  3191 ;; Return value:  Size  Location     Type
  3192 ;;                  1    wreg      void 
  3193 ;; Registers used:
  3194 ;;		wreg
  3195 ;; Tracked objects:
  3196 ;;		On entry : 0/0
  3197 ;;		On exit  : 0/0
  3198 ;;		Unchanged: 0/0
  3199 ;; Data sizes:     COMRAM   BANK0   BANK1   BANK2   BANK3   BANK4   BANK5   BANK6   BANK7   BANK8   BANK9  BANK10  BANK1
      +1  BANK12  BANK13  BANK14
  3200 ;;      Params:         0       0       0       0       0       0       0       0       0       0       0       0       
      +0       0       0       0
  3201 ;;      Locals:         1       0       0       0       0       0       0       0       0       0       0       0       
      +0       0       0       0
  3202 ;;      Temps:          0       0       0       0       0       0       0       0       0       0       0       0       
      +0       0       0       0
  3203 ;;      Totals:         1       0       0       0       0       0       0       0       0       0       0       0       
      +0       0       0       0
  3204 ;;Total ram usage:        1 bytes
  3205 ;; Hardware stack levels used: 1
  3206 ;; Hardware stack levels required when called: 4
  3207 ;; This function calls:
  3208 ;;		Nothing
  3209 ;; This function is called by:
  3210 ;;		_I2C_DO_SEND_ADR_READ
  3211 ;;		_I2C_DO_SEND_ADR_WRITE
  3212 ;;		_I2C_DO_TX
  3213 ;; This function uses a non-reentrant model
  3214 ;;
  3215                           
  3216                           	psect	text36
  3217   001912                     __ptext36:
  3218                           	callstack 0
  3219   001912                     _I2C_MasterSendTxData:
  3220                           	callstack 22
  3221                           
  3222                           ;incstack = 0
  3223                           ;I2C_MasterSendTxData@data stored from wreg
  3224   001912  6E05               	movwf	I2C_MasterSendTxData@data^0,c
  3225   001914                     
  3226                           ;mcc_generated_files/i2c_master.c: 568: static __attribute__((inline)) void I2C_MasterSe
      +                          ndTxData(uint8_t data);mcc_generated_files/i2c_master.c: 569: {;mcc_generated_files/i2c_
      +                          master.c: 570:     SSPBUF = data;
  3227   001914  C005  FFC9         	movff	I2C_MasterSendTxData@data,4041	;volatile
  3228   001918  0012               	return		;funcret
  3229   00191A                     __end_of_I2C_MasterSendTxData:
  3230                           	callstack 0
  3231                           
  3232 ;; *************** function _I2C_MasterSendAck *****************
  3233 ;; Defined at:
  3234 ;;		line 603 in file "mcc_generated_files/i2c_master.c"
  3235 ;; Parameters:    Size  Location     Type
  3236 ;;		None
  3237 ;; Auto vars:     Size  Location     Type
  3238 ;;		None
  3239 ;; Return value:  Size  Location     Type
  3240 ;;                  1    wreg      void 
  3241 ;; Registers used:
  3242 ;;		None
  3243 ;; Tracked objects:
  3244 ;;		On entry : 0/0
  3245 ;;		On exit  : 0/0
  3246 ;;		Unchanged: 0/0
  3247 ;; Data sizes:     COMRAM   BANK0   BANK1   BANK2   BANK3   BANK4   BANK5   BANK6   BANK7   BANK8   BANK9  BANK10  BANK1
      +1  BANK12  BANK13  BANK14
  3248 ;;      Params:         0       0       0       0       0       0       0       0       0       0       0       0       
      +0       0       0       0
  3249 ;;      Locals:         0       0       0       0       0       0       0       0       0       0       0       0       
      +0       0       0       0
  3250 ;;      Temps:          0       0       0       0       0       0       0       0       0       0       0       0       
      +0       0       0       0
  3251 ;;      Totals:         0       0       0       0       0       0       0       0       0       0       0       0       
      +0       0       0       0
  3252 ;;Total ram usage:        0 bytes
  3253 ;; Hardware stack levels used: 1
  3254 ;; Hardware stack levels required when called: 4
  3255 ;; This function calls:
  3256 ;;		Nothing
  3257 ;; This function is called by:
  3258 ;;		_I2C_DO_RX
  3259 ;;		_I2C_DO_RX_ACK
  3260 ;; This function uses a non-reentrant model
  3261 ;;
  3262                           
  3263                           	psect	text37
  3264   00191A                     __ptext37:
  3265                           	callstack 0
  3266   00191A                     _I2C_MasterSendAck:
  3267                           	callstack 22
  3268   00191A                     
  3269                           ;mcc_generated_files/i2c_master.c: 605:     SSPCON2bits.ACKDT = 0;
  3270   00191A  9AC5               	bcf	197,5,c	;volatile
  3271                           
  3272                           ;mcc_generated_files/i2c_master.c: 606:     SSPCON2bits.ACKEN = 1;
  3273   00191C  88C5               	bsf	197,4,c	;volatile
  3274   00191E  0012               	return		;funcret
  3275   001920                     __end_of_I2C_MasterSendAck:
  3276                           	callstack 0
  3277                           
  3278 ;; *************** function _I2C_MasterGetRxData *****************
  3279 ;; Defined at:
  3280 ;;		line 563 in file "mcc_generated_files/i2c_master.c"
  3281 ;; Parameters:    Size  Location     Type
  3282 ;;		None
  3283 ;; Auto vars:     Size  Location     Type
  3284 ;;		None
  3285 ;; Return value:  Size  Location     Type
  3286 ;;                  1    wreg      unsigned char 
  3287 ;; Registers used:
  3288 ;;		wreg, status,2
  3289 ;; Tracked objects:
  3290 ;;		On entry : 0/0
  3291 ;;		On exit  : 0/0
  3292 ;;		Unchanged: 0/0
  3293 ;; Data sizes:     COMRAM   BANK0   BANK1   BANK2   BANK3   BANK4   BANK5   BANK6   BANK7   BANK8   BANK9  BANK10  BANK1
      +1  BANK12  BANK13  BANK14
  3294 ;;      Params:         0       0       0       0       0       0       0       0       0       0       0       0       
      +0       0       0       0
  3295 ;;      Locals:         0       0       0       0       0       0       0       0       0       0       0       0       
      +0       0       0       0
  3296 ;;      Temps:          0       0       0       0       0       0       0       0       0       0       0       0       
      +0       0       0       0
  3297 ;;      Totals:         0       0       0       0       0       0       0       0       0       0       0       0       
      +0       0       0       0
  3298 ;;Total ram usage:        0 bytes
  3299 ;; Hardware stack levels used: 1
  3300 ;; Hardware stack levels required when called: 4
  3301 ;; This function calls:
  3302 ;;		Nothing
  3303 ;; This function is called by:
  3304 ;;		_I2C_DO_RX
  3305 ;; This function uses a non-reentrant model
  3306 ;;
  3307                           
  3308                           	psect	text38
  3309   00193A                     __ptext38:
  3310                           	callstack 0
  3311   00193A                     _I2C_MasterGetRxData:
  3312                           	callstack 22
  3313   00193A                     
  3314                           ;mcc_generated_files/i2c_master.c: 565:     return SSPBUF;
  3315   00193A  50C9               	movf	201,w,c	;volatile
  3316   00193C  0012               	return		;funcret
  3317   00193E                     __end_of_I2C_MasterGetRxData:
  3318                           	callstack 0
  3319                           
  3320 ;; *************** function _I2C_MasterSendNack *****************
  3321 ;; Defined at:
  3322 ;;		line 609 in file "mcc_generated_files/i2c_master.c"
  3323 ;; Parameters:    Size  Location     Type
  3324 ;;		None
  3325 ;; Auto vars:     Size  Location     Type
  3326 ;;		None
  3327 ;; Return value:  Size  Location     Type
  3328 ;;                  1    wreg      void 
  3329 ;; Registers used:
  3330 ;;		None
  3331 ;; Tracked objects:
  3332 ;;		On entry : 0/0
  3333 ;;		On exit  : 0/0
  3334 ;;		Unchanged: 0/0
  3335 ;; Data sizes:     COMRAM   BANK0   BANK1   BANK2   BANK3   BANK4   BANK5   BANK6   BANK7   BANK8   BANK9  BANK10  BANK1
      +1  BANK12  BANK13  BANK14
  3336 ;;      Params:         0       0       0       0       0       0       0       0       0       0       0       0       
      +0       0       0       0
  3337 ;;      Locals:         0       0       0       0       0       0       0       0       0       0       0       0       
      +0       0       0       0
  3338 ;;      Temps:          0       0       0       0       0       0       0       0       0       0       0       0       
      +0       0       0       0
  3339 ;;      Totals:         0       0       0       0       0       0       0       0       0       0       0       0       
      +0       0       0       0
  3340 ;;Total ram usage:        0 bytes
  3341 ;; Hardware stack levels used: 1
  3342 ;; Hardware stack levels required when called: 4
  3343 ;; This function calls:
  3344 ;;		Nothing
  3345 ;; This function is called by:
  3346 ;;		_I2C_DO_RX_NACK_STOP
  3347 ;;		_I2C_DO_RX_NACK_RESTART
  3348 ;; This function uses a non-reentrant model
  3349 ;;
  3350                           
  3351                           	psect	text39
  3352   001920                     __ptext39:
  3353                           	callstack 0
  3354   001920                     _I2C_MasterSendNack:
  3355                           	callstack 22
  3356   001920                     
  3357                           ;mcc_generated_files/i2c_master.c: 611:     SSPCON2bits.ACKDT = 1;
  3358   001920  8AC5               	bsf	197,5,c	;volatile
  3359                           
  3360                           ;mcc_generated_files/i2c_master.c: 612:     SSPCON2bits.ACKEN = 1;
  3361   001922  88C5               	bsf	197,4,c	;volatile
  3362   001924  0012               	return		;funcret
  3363   001926                     __end_of_I2C_MasterSendNack:
  3364                           	callstack 0
  3365                           
  3366 ;; *************** function _I2C_MasterStartRx *****************
  3367 ;; Defined at:
  3368 ;;		line 583 in file "mcc_generated_files/i2c_master.c"
  3369 ;; Parameters:    Size  Location     Type
  3370 ;;		None
  3371 ;; Auto vars:     Size  Location     Type
  3372 ;;		None
  3373 ;; Return value:  Size  Location     Type
  3374 ;;                  1    wreg      void 
  3375 ;; Registers used:
  3376 ;;		None
  3377 ;; Tracked objects:
  3378 ;;		On entry : 0/0
  3379 ;;		On exit  : 0/0
  3380 ;;		Unchanged: 0/0
  3381 ;; Data sizes:     COMRAM   BANK0   BANK1   BANK2   BANK3   BANK4   BANK5   BANK6   BANK7   BANK8   BANK9  BANK10  BANK1
      +1  BANK12  BANK13  BANK14
  3382 ;;      Params:         0       0       0       0       0       0       0       0       0       0       0       0       
      +0       0       0       0
  3383 ;;      Locals:         0       0       0       0       0       0       0       0       0       0       0       0       
      +0       0       0       0
  3384 ;;      Temps:          0       0       0       0       0       0       0       0       0       0       0       0       
      +0       0       0       0
  3385 ;;      Totals:         0       0       0       0       0       0       0       0       0       0       0       0       
      +0       0       0       0
  3386 ;;Total ram usage:        0 bytes
  3387 ;; Hardware stack levels used: 1
  3388 ;; Hardware stack levels required when called: 4
  3389 ;; This function calls:
  3390 ;;		Nothing
  3391 ;; This function is called by:
  3392 ;;		_I2C_DO_RCEN
  3393 ;; This function uses a non-reentrant model
  3394 ;;
  3395                           
  3396                           	psect	text40
  3397   00193E                     __ptext40:
  3398                           	callstack 0
  3399   00193E                     _I2C_MasterStartRx:
  3400                           	callstack 22
  3401   00193E                     
  3402                           ;mcc_generated_files/i2c_master.c: 585:     SSPCON2bits.RCEN = 1;
  3403   00193E  86C5               	bsf	197,3,c	;volatile
  3404   001940  0012               	return		;funcret
  3405   001942                     __end_of_I2C_MasterStartRx:
  3406                           	callstack 0
  3407                           
  3408 ;; *************** function _I2C_CallbackReturnReset *****************
  3409 ;; Defined at:
  3410 ;;		line 525 in file "mcc_generated_files/i2c_master.c"
  3411 ;; Parameters:    Size  Location     Type
  3412 ;;  funPtr          2   13[COMRAM] PTR void 
  3413 ;;		 -> I2C_ReadDataBlock@bufferBlock(4), I2C_Write2ByteRegister@data(2), I2C_Write1ByteRegister@data(1), I2C_Read2ByteR
      +egister@returnValue(2), 
  3414 ;;		 -> NULL(0), I2C_Read1ByteRegister@returnValue(1), 
  3415 ;; Auto vars:     Size  Location     Type
  3416 ;;		None
  3417 ;; Return value:  Size  Location     Type
  3418 ;;                  1    wreg      enum E363
  3419 ;; Registers used:
  3420 ;;		wreg
  3421 ;; Tracked objects:
  3422 ;;		On entry : 0/0
  3423 ;;		On exit  : 0/0
  3424 ;;		Unchanged: 0/0
  3425 ;; Data sizes:     COMRAM   BANK0   BANK1   BANK2   BANK3   BANK4   BANK5   BANK6   BANK7   BANK8   BANK9  BANK10  BANK1
      +1  BANK12  BANK13  BANK14
  3426 ;;      Params:         2       0       0       0       0       0       0       0       0       0       0       0       
      +0       0       0       0
  3427 ;;      Locals:         0       0       0       0       0       0       0       0       0       0       0       0       
      +0       0       0       0
  3428 ;;      Temps:          0       0       0       0       0       0       0       0       0       0       0       0       
      +0       0       0       0
  3429 ;;      Totals:         2       0       0       0       0       0       0       0       0       0       0       0       
      +0       0       0       0
  3430 ;;Total ram usage:        2 bytes
  3431 ;; Hardware stack levels used: 1
  3432 ;; Hardware stack levels required when called: 4
  3433 ;; This function calls:
  3434 ;;		Nothing
  3435 ;; This function is called by:
  3436 ;;		_I2C_Open
  3437 ;;		_I2C_DO_TX
  3438 ;;		_I2C_DO_RX
  3439 ;;		_I2C_DO_TX_EMPTY
  3440 ;;		_I2C_DO_ADDRESS_NACK
  3441 ;;		_I2C_DO_RX_EMPTY
  3442 ;; This function uses a non-reentrant model
  3443 ;;
  3444                           
  3445                           	psect	text41
  3446   001942                     __ptext41:
  3447                           	callstack 0
  3448   001942                     _I2C_CallbackReturnReset:
  3449                           	callstack 22
  3450   001942                     
  3451                           ;mcc_generated_files/i2c_master.c: 525: i2c_operations_t I2C_CallbackReturnReset(void *f
      +                          unPtr);mcc_generated_files/i2c_master.c: 526: {;mcc_generated_files/i2c_master.c: 527:  
      +                             return I2C_RESET_LINK;
  3452   001942  0E05               	movlw	5
  3453   001944  0012               	return		;funcret
  3454   001946                     __end_of_I2C_CallbackReturnReset:
  3455                           	callstack 0
  3456                           
  3457 ;; *************** function _I2C_CallbackReturnStop *****************
  3458 ;; Defined at:
  3459 ;;		line 520 in file "mcc_generated_files/i2c_master.c"
  3460 ;; Parameters:    Size  Location     Type
  3461 ;;  funPtr          2   13[COMRAM] PTR void 
  3462 ;;		 -> I2C_ReadDataBlock@bufferBlock(4), I2C_Write2ByteRegister@data(2), I2C_Write1ByteRegister@data(1), I2C_Read2ByteR
      +egister@returnValue(2), 
  3463 ;;		 -> NULL(0), I2C_Read1ByteRegister@returnValue(1), 
  3464 ;; Auto vars:     Size  Location     Type
  3465 ;;		None
  3466 ;; Return value:  Size  Location     Type
  3467 ;;                  1    wreg      enum E363
  3468 ;; Registers used:
  3469 ;;		wreg
  3470 ;; Tracked objects:
  3471 ;;		On entry : 0/0
  3472 ;;		On exit  : 0/0
  3473 ;;		Unchanged: 0/0
  3474 ;; Data sizes:     COMRAM   BANK0   BANK1   BANK2   BANK3   BANK4   BANK5   BANK6   BANK7   BANK8   BANK9  BANK10  BANK1
      +1  BANK12  BANK13  BANK14
  3475 ;;      Params:         2       0       0       0       0       0       0       0       0       0       0       0       
      +0       0       0       0
  3476 ;;      Locals:         0       0       0       0       0       0       0       0       0       0       0       0       
      +0       0       0       0
  3477 ;;      Temps:          0       0       0       0       0       0       0       0       0       0       0       0       
      +0       0       0       0
  3478 ;;      Totals:         2       0       0       0       0       0       0       0       0       0       0       0       
      +0       0       0       0
  3479 ;;Total ram usage:        2 bytes
  3480 ;; Hardware stack levels used: 1
  3481 ;; Hardware stack levels required when called: 4
  3482 ;; This function calls:
  3483 ;;		Nothing
  3484 ;; This function is called by:
  3485 ;;		_I2C_Open
  3486 ;;		_I2C_SetCallback
  3487 ;;		_I2C_DO_TX
  3488 ;;		_I2C_DO_RX
  3489 ;;		_I2C_DO_TX_EMPTY
  3490 ;;		_I2C_DO_ADDRESS_NACK
  3491 ;;		_I2C_DO_RX_EMPTY
  3492 ;; This function uses a non-reentrant model
  3493 ;;
  3494                           
  3495                           	psect	text42
  3496   001946                     __ptext42:
  3497                           	callstack 0
  3498   001946                     _I2C_CallbackReturnStop:
  3499                           	callstack 22
  3500   001946                     
  3501                           ;mcc_generated_files/i2c_master.c: 520: i2c_operations_t I2C_CallbackReturnStop(void *fu
      +                          nPtr);mcc_generated_files/i2c_master.c: 521: {;mcc_generated_files/i2c_master.c: 522:   
      +                            return I2C_STOP_M;
  3502   001946  0E01               	movlw	1
  3503   001948  0012               	return		;funcret
  3504   00194A                     __end_of_I2C_CallbackReturnStop:
  3505                           	callstack 0
  3506                           
  3507 ;; *************** function _rdBlkRegCompleteHandler *****************
  3508 ;; Defined at:
  3509 ;;		line 170 in file "mcc_generated_files/examples/i2c_master_example.c"
  3510 ;; Parameters:    Size  Location     Type
  3511 ;;  ptr             2   13[COMRAM] PTR void 
  3512 ;;		 -> I2C_ReadDataBlock@bufferBlock(4), I2C_Write2ByteRegister@data(2), I2C_Write1ByteRegister@data(1), I2C_Read2ByteR
      +egister@returnValue(2), 
  3513 ;;		 -> NULL(0), I2C_Read1ByteRegister@returnValue(1), 
  3514 ;; Auto vars:     Size  Location     Type
  3515 ;;		None
  3516 ;; Return value:  Size  Location     Type
  3517 ;;                  1    wreg      enum E363
  3518 ;; Registers used:
  3519 ;;		wreg, fsr2l, fsr2h, status,2, status,0, prodl, prodh, cstack
  3520 ;; Tracked objects:
  3521 ;;		On entry : 0/0
  3522 ;;		On exit  : 0/0
  3523 ;;		Unchanged: 0/0
  3524 ;; Data sizes:     COMRAM   BANK0   BANK1   BANK2   BANK3   BANK4   BANK5   BANK6   BANK7   BANK8   BANK9  BANK10  BANK1
      +1  BANK12  BANK13  BANK14
  3525 ;;      Params:         2       0       0       0       0       0       0       0       0       0       0       0       
      +0       0       0       0
  3526 ;;      Locals:         0       0       0       0       0       0       0       0       0       0       0       0       
      +0       0       0       0
  3527 ;;      Temps:          1       0       0       0       0       0       0       0       0       0       0       0       
      +0       0       0       0
  3528 ;;      Totals:         3       0       0       0       0       0       0       0       0       0       0       0       
      +0       0       0       0
  3529 ;;Total ram usage:        3 bytes
  3530 ;; Hardware stack levels used: 1
  3531 ;; Hardware stack levels required when called: 6
  3532 ;; This function calls:
  3533 ;;		_I2C_SetBuffer
  3534 ;;		_I2C_SetDataCompleteCallback
  3535 ;; This function is called by:
  3536 ;;		_I2C_ReadDataBlock
  3537 ;;		_I2C_DO_TX
  3538 ;;		_I2C_DO_RX
  3539 ;;		_I2C_DO_TX_EMPTY
  3540 ;;		_I2C_DO_ADDRESS_NACK
  3541 ;;		_I2C_DO_RX_EMPTY
  3542 ;; This function uses a non-reentrant model
  3543 ;;
  3544                           
  3545                           	psect	text43
  3546   0015BA                     __ptext43:
  3547                           	callstack 0
  3548   0015BA                     _rdBlkRegCompleteHandler:
  3549                           	callstack 20
  3550   0015BA                     
  3551                           ;mcc_generated_files/examples/i2c_master_example.c: 170: static i2c_operations_t rdBlkRe
      +                          gCompleteHandler(void *ptr);mcc_generated_files/examples/i2c_master_example.c: 171: {;mc
      +                          c_generated_files/examples/i2c_master_example.c: 172:     I2C_SetBuffer(((i2c_buffer_t *
      +                          )ptr)->data,((i2c_buffer_t*)ptr)->len);
  3552   0015BA  EE20 F002          	lfsr	2,2
  3553   0015BE  500E               	movf	rdBlkRegCompleteHandler@ptr^0,w,c
  3554   0015C0  26D9               	addwf	fsr2l,f,c
  3555   0015C2  500F               	movf	(rdBlkRegCompleteHandler@ptr+1)^0,w,c
  3556   0015C4  22DA               	addwfc	fsr2h,f,c
  3557   0015C6  50DF               	movf	indf2,w,c
  3558   0015C8  6E10               	movwf	??_rdBlkRegCompleteHandler^0,c
  3559   0015CA  C010  F005         	movff	??_rdBlkRegCompleteHandler,I2C_SetBuffer@buffer
  3560   0015CE  6A06               	clrf	(I2C_SetBuffer@buffer+1)^0,c
  3561   0015D0  C00E  FFD9         	movff	rdBlkRegCompleteHandler@ptr,fsr2l
  3562   0015D4  C00F  FFDA         	movff	rdBlkRegCompleteHandler@ptr+1,fsr2h
  3563   0015D8  CFDE F007          	movff	postinc2,I2C_SetBuffer@bufferSize
  3564   0015DC  CFDD F008          	movff	postdec2,I2C_SetBuffer@bufferSize+1
  3565   0015E0  ECC4  F00B         	call	_I2C_SetBuffer	;wreg free
  3566   0015E4                     
  3567                           ;mcc_generated_files/examples/i2c_master_example.c: 173:     I2C_SetDataCompleteCallback
      +                          (((void*)0),((void*)0));
  3568   0015E4  0E00               	movlw	0
  3569   0015E6  6E0A               	movwf	I2C_SetDataCompleteCallback@cb^0,c
  3570   0015E8  0E00               	movlw	0
  3571   0015EA  6E0B               	movwf	(I2C_SetDataCompleteCallback@cb+1)^0,c
  3572   0015EC  0E00               	movlw	0
  3573   0015EE  6E0C               	movwf	I2C_SetDataCompleteCallback@ptr^0,c
  3574   0015F0  0E00               	movlw	0
  3575   0015F2  6E0D               	movwf	(I2C_SetDataCompleteCallback@ptr+1)^0,c
  3576   0015F4  ECF6  F00B         	call	_I2C_SetDataCompleteCallback	;wreg free
  3577   0015F8                     
  3578                           ;mcc_generated_files/examples/i2c_master_example.c: 174:     return I2C_RESTART_READ;
  3579   0015F8  0E02               	movlw	2
  3580   0015FA  0012               	return		;funcret
  3581   0015FC                     __end_of_rdBlkRegCompleteHandler:
  3582                           	callstack 0
  3583                           
  3584 ;; *************** function _wr1RegCompleteHandler *****************
  3585 ;; Defined at:
  3586 ;;		line 156 in file "mcc_generated_files/examples/i2c_master_example.c"
  3587 ;; Parameters:    Size  Location     Type
  3588 ;;  ptr             2   13[COMRAM] PTR void 
  3589 ;;		 -> I2C_ReadDataBlock@bufferBlock(4), I2C_Write2ByteRegister@data(2), I2C_Write1ByteRegister@data(1), I2C_Read2ByteR
      +egister@returnValue(2), 
  3590 ;;		 -> NULL(0), I2C_Read1ByteRegister@returnValue(1), 
  3591 ;; Auto vars:     Size  Location     Type
  3592 ;;		None
  3593 ;; Return value:  Size  Location     Type
  3594 ;;                  1    wreg      enum E363
  3595 ;; Registers used:
  3596 ;;		wreg, fsr2l, fsr2h, status,2, status,0, prodl, prodh, cstack
  3597 ;; Tracked objects:
  3598 ;;		On entry : 0/0
  3599 ;;		On exit  : 0/0
  3600 ;;		Unchanged: 0/0
  3601 ;; Data sizes:     COMRAM   BANK0   BANK1   BANK2   BANK3   BANK4   BANK5   BANK6   BANK7   BANK8   BANK9  BANK10  BANK1
      +1  BANK12  BANK13  BANK14
  3602 ;;      Params:         2       0       0       0       0       0       0       0       0       0       0       0       
      +0       0       0       0
  3603 ;;      Locals:         0       0       0       0       0       0       0       0       0       0       0       0       
      +0       0       0       0
  3604 ;;      Temps:          0       0       0       0       0       0       0       0       0       0       0       0       
      +0       0       0       0
  3605 ;;      Totals:         2       0       0       0       0       0       0       0       0       0       0       0       
      +0       0       0       0
  3606 ;;Total ram usage:        2 bytes
  3607 ;; Hardware stack levels used: 1
  3608 ;; Hardware stack levels required when called: 6
  3609 ;; This function calls:
  3610 ;;		_I2C_SetBuffer
  3611 ;;		_I2C_SetDataCompleteCallback
  3612 ;; This function is called by:
  3613 ;;		_I2C_Write1ByteRegister
  3614 ;;		_I2C_DO_TX
  3615 ;;		_I2C_DO_RX
  3616 ;;		_I2C_DO_TX_EMPTY
  3617 ;;		_I2C_DO_ADDRESS_NACK
  3618 ;;		_I2C_DO_RX_EMPTY
  3619 ;; This function uses a non-reentrant model
  3620 ;;
  3621                           
  3622                           	psect	text44
  3623   001638                     __ptext44:
  3624                           	callstack 0
  3625   001638                     _wr1RegCompleteHandler:
  3626                           	callstack 20
  3627   001638                     
  3628                           ;mcc_generated_files/examples/i2c_master_example.c: 156: static i2c_operations_t wr1RegC
      +                          ompleteHandler(void *ptr);mcc_generated_files/examples/i2c_master_example.c: 157: {;mcc_
      +                          generated_files/examples/i2c_master_example.c: 158:     I2C_SetBuffer(ptr,1);
  3629   001638  C00E  F005         	movff	wr1RegCompleteHandler@ptr,I2C_SetBuffer@buffer
  3630   00163C  C00F  F006         	movff	wr1RegCompleteHandler@ptr+1,I2C_SetBuffer@buffer+1
  3631   001640  0E00               	movlw	0
  3632   001642  6E08               	movwf	(I2C_SetBuffer@bufferSize+1)^0,c
  3633   001644  0E01               	movlw	1
  3634   001646  6E07               	movwf	I2C_SetBuffer@bufferSize^0,c
  3635   001648  ECC4  F00B         	call	_I2C_SetBuffer	;wreg free
  3636   00164C                     
  3637                           ;mcc_generated_files/examples/i2c_master_example.c: 159:     I2C_SetDataCompleteCallback
      +                          (((void*)0),((void*)0));
  3638   00164C  0E00               	movlw	0
  3639   00164E  6E0A               	movwf	I2C_SetDataCompleteCallback@cb^0,c
  3640   001650  0E00               	movlw	0
  3641   001652  6E0B               	movwf	(I2C_SetDataCompleteCallback@cb+1)^0,c
  3642   001654  0E00               	movlw	0
  3643   001656  6E0C               	movwf	I2C_SetDataCompleteCallback@ptr^0,c
  3644   001658  0E00               	movlw	0
  3645   00165A  6E0D               	movwf	(I2C_SetDataCompleteCallback@ptr+1)^0,c
  3646   00165C  ECF6  F00B         	call	_I2C_SetDataCompleteCallback	;wreg free
  3647   001660                     
  3648                           ;mcc_generated_files/examples/i2c_master_example.c: 160:     return I2C_CONTINUE;
  3649   001660  0E04               	movlw	4
  3650   001662  0012               	return		;funcret
  3651   001664                     __end_of_wr1RegCompleteHandler:
  3652                           	callstack 0
  3653                           
  3654 ;; *************** function _rd2RegCompleteHandler *****************
  3655 ;; Defined at:
  3656 ;;		line 149 in file "mcc_generated_files/examples/i2c_master_example.c"
  3657 ;; Parameters:    Size  Location     Type
  3658 ;;  ptr             2   13[COMRAM] PTR void 
  3659 ;;		 -> I2C_ReadDataBlock@bufferBlock(4), I2C_Write2ByteRegister@data(2), I2C_Write1ByteRegister@data(1), I2C_Read2ByteR
      +egister@returnValue(2), 
  3660 ;;		 -> NULL(0), I2C_Read1ByteRegister@returnValue(1), 
  3661 ;; Auto vars:     Size  Location     Type
  3662 ;;		None
  3663 ;; Return value:  Size  Location     Type
  3664 ;;                  1    wreg      enum E363
  3665 ;; Registers used:
  3666 ;;		wreg, fsr2l, fsr2h, status,2, status,0, prodl, prodh, cstack
  3667 ;; Tracked objects:
  3668 ;;		On entry : 0/0
  3669 ;;		On exit  : 0/0
  3670 ;;		Unchanged: 0/0
  3671 ;; Data sizes:     COMRAM   BANK0   BANK1   BANK2   BANK3   BANK4   BANK5   BANK6   BANK7   BANK8   BANK9  BANK10  BANK1
      +1  BANK12  BANK13  BANK14
  3672 ;;      Params:         2       0       0       0       0       0       0       0       0       0       0       0       
      +0       0       0       0
  3673 ;;      Locals:         0       0       0       0       0       0       0       0       0       0       0       0       
      +0       0       0       0
  3674 ;;      Temps:          0       0       0       0       0       0       0       0       0       0       0       0       
      +0       0       0       0
  3675 ;;      Totals:         2       0       0       0       0       0       0       0       0       0       0       0       
      +0       0       0       0
  3676 ;;Total ram usage:        2 bytes
  3677 ;; Hardware stack levels used: 1
  3678 ;; Hardware stack levels required when called: 6
  3679 ;; This function calls:
  3680 ;;		_I2C_SetBuffer
  3681 ;;		_I2C_SetDataCompleteCallback
  3682 ;; This function is called by:
  3683 ;;		_I2C_Read2ByteRegister
  3684 ;;		_I2C_DO_TX
  3685 ;;		_I2C_DO_RX
  3686 ;;		_I2C_DO_TX_EMPTY
  3687 ;;		_I2C_DO_ADDRESS_NACK
  3688 ;;		_I2C_DO_RX_EMPTY
  3689 ;; This function uses a non-reentrant model
  3690 ;;
  3691                           
  3692                           	psect	text45
  3693   001664                     __ptext45:
  3694                           	callstack 0
  3695   001664                     _rd2RegCompleteHandler:
  3696                           	callstack 20
  3697   001664                     
  3698                           ;mcc_generated_files/examples/i2c_master_example.c: 149: static i2c_operations_t rd2RegC
      +                          ompleteHandler(void *ptr);mcc_generated_files/examples/i2c_master_example.c: 150: {;mcc_
      +                          generated_files/examples/i2c_master_example.c: 151:     I2C_SetBuffer(ptr,2);
  3699   001664  C00E  F005         	movff	rd2RegCompleteHandler@ptr,I2C_SetBuffer@buffer
  3700   001668  C00F  F006         	movff	rd2RegCompleteHandler@ptr+1,I2C_SetBuffer@buffer+1
  3701   00166C  0E00               	movlw	0
  3702   00166E  6E08               	movwf	(I2C_SetBuffer@bufferSize+1)^0,c
  3703   001670  0E02               	movlw	2
  3704   001672  6E07               	movwf	I2C_SetBuffer@bufferSize^0,c
  3705   001674  ECC4  F00B         	call	_I2C_SetBuffer	;wreg free
  3706   001678                     
  3707                           ;mcc_generated_files/examples/i2c_master_example.c: 152:     I2C_SetDataCompleteCallback
      +                          (((void*)0),((void*)0));
  3708   001678  0E00               	movlw	0
  3709   00167A  6E0A               	movwf	I2C_SetDataCompleteCallback@cb^0,c
  3710   00167C  0E00               	movlw	0
  3711   00167E  6E0B               	movwf	(I2C_SetDataCompleteCallback@cb+1)^0,c
  3712   001680  0E00               	movlw	0
  3713   001682  6E0C               	movwf	I2C_SetDataCompleteCallback@ptr^0,c
  3714   001684  0E00               	movlw	0
  3715   001686  6E0D               	movwf	(I2C_SetDataCompleteCallback@ptr+1)^0,c
  3716   001688  ECF6  F00B         	call	_I2C_SetDataCompleteCallback	;wreg free
  3717   00168C                     
  3718                           ;mcc_generated_files/examples/i2c_master_example.c: 153:     return I2C_RESTART_READ;
  3719   00168C  0E02               	movlw	2
  3720   00168E  0012               	return		;funcret
  3721   001690                     __end_of_rd2RegCompleteHandler:
  3722                           	callstack 0
  3723                           
  3724 ;; *************** function _rd1RegCompleteHandler *****************
  3725 ;; Defined at:
  3726 ;;		line 142 in file "mcc_generated_files/examples/i2c_master_example.c"
  3727 ;; Parameters:    Size  Location     Type
  3728 ;;  ptr             2   13[COMRAM] PTR void 
  3729 ;;		 -> I2C_ReadDataBlock@bufferBlock(4), I2C_Write2ByteRegister@data(2), I2C_Write1ByteRegister@data(1), I2C_Read2ByteR
      +egister@returnValue(2), 
  3730 ;;		 -> NULL(0), I2C_Read1ByteRegister@returnValue(1), 
  3731 ;; Auto vars:     Size  Location     Type
  3732 ;;		None
  3733 ;; Return value:  Size  Location     Type
  3734 ;;                  1    wreg      enum E363
  3735 ;; Registers used:
  3736 ;;		wreg, fsr2l, fsr2h, status,2, status,0, prodl, prodh, cstack
  3737 ;; Tracked objects:
  3738 ;;		On entry : 0/0
  3739 ;;		On exit  : 0/0
  3740 ;;		Unchanged: 0/0
  3741 ;; Data sizes:     COMRAM   BANK0   BANK1   BANK2   BANK3   BANK4   BANK5   BANK6   BANK7   BANK8   BANK9  BANK10  BANK1
      +1  BANK12  BANK13  BANK14
  3742 ;;      Params:         2       0       0       0       0       0       0       0       0       0       0       0       
      +0       0       0       0
  3743 ;;      Locals:         0       0       0       0       0       0       0       0       0       0       0       0       
      +0       0       0       0
  3744 ;;      Temps:          0       0       0       0       0       0       0       0       0       0       0       0       
      +0       0       0       0
  3745 ;;      Totals:         2       0       0       0       0       0       0       0       0       0       0       0       
      +0       0       0       0
  3746 ;;Total ram usage:        2 bytes
  3747 ;; Hardware stack levels used: 1
  3748 ;; Hardware stack levels required when called: 6
  3749 ;; This function calls:
  3750 ;;		_I2C_SetBuffer
  3751 ;;		_I2C_SetDataCompleteCallback
  3752 ;; This function is called by:
  3753 ;;		_I2C_Read1ByteRegister
  3754 ;;		_I2C_DO_TX
  3755 ;;		_I2C_DO_RX
  3756 ;;		_I2C_DO_TX_EMPTY
  3757 ;;		_I2C_DO_ADDRESS_NACK
  3758 ;;		_I2C_DO_RX_EMPTY
  3759 ;; This function uses a non-reentrant model
  3760 ;;
  3761                           
  3762                           	psect	text46
  3763   001690                     __ptext46:
  3764                           	callstack 0
  3765   001690                     _rd1RegCompleteHandler:
  3766                           	callstack 20
  3767   001690                     
  3768                           ;mcc_generated_files/examples/i2c_master_example.c: 142: static i2c_operations_t rd1RegC
      +                          ompleteHandler(void *ptr);mcc_generated_files/examples/i2c_master_example.c: 143: {;mcc_
      +                          generated_files/examples/i2c_master_example.c: 144:     I2C_SetBuffer(ptr,1);
  3769   001690  C00E  F005         	movff	rd1RegCompleteHandler@ptr,I2C_SetBuffer@buffer
  3770   001694  C00F  F006         	movff	rd1RegCompleteHandler@ptr+1,I2C_SetBuffer@buffer+1
  3771   001698  0E00               	movlw	0
  3772   00169A  6E08               	movwf	(I2C_SetBuffer@bufferSize+1)^0,c
  3773   00169C  0E01               	movlw	1
  3774   00169E  6E07               	movwf	I2C_SetBuffer@bufferSize^0,c
  3775   0016A0  ECC4  F00B         	call	_I2C_SetBuffer	;wreg free
  3776   0016A4                     
  3777                           ;mcc_generated_files/examples/i2c_master_example.c: 145:     I2C_SetDataCompleteCallback
      +                          (((void*)0),((void*)0));
  3778   0016A4  0E00               	movlw	0
  3779   0016A6  6E0A               	movwf	I2C_SetDataCompleteCallback@cb^0,c
  3780   0016A8  0E00               	movlw	0
  3781   0016AA  6E0B               	movwf	(I2C_SetDataCompleteCallback@cb+1)^0,c
  3782   0016AC  0E00               	movlw	0
  3783   0016AE  6E0C               	movwf	I2C_SetDataCompleteCallback@ptr^0,c
  3784   0016B0  0E00               	movlw	0
  3785   0016B2  6E0D               	movwf	(I2C_SetDataCompleteCallback@ptr+1)^0,c
  3786   0016B4  ECF6  F00B         	call	_I2C_SetDataCompleteCallback	;wreg free
  3787   0016B8                     
  3788                           ;mcc_generated_files/examples/i2c_master_example.c: 146:     return I2C_RESTART_READ;
  3789   0016B8  0E02               	movlw	2
  3790   0016BA  0012               	return		;funcret
  3791   0016BC                     __end_of_rd1RegCompleteHandler:
  3792                           	callstack 0
  3793                           
  3794 ;; *************** function _wr2RegCompleteHandler *****************
  3795 ;; Defined at:
  3796 ;;		line 163 in file "mcc_generated_files/examples/i2c_master_example.c"
  3797 ;; Parameters:    Size  Location     Type
  3798 ;;  ptr             2   13[COMRAM] PTR void 
  3799 ;;		 -> I2C_ReadDataBlock@bufferBlock(4), I2C_Write2ByteRegister@data(2), I2C_Write1ByteRegister@data(1), I2C_Read2ByteR
      +egister@returnValue(2), 
  3800 ;;		 -> NULL(0), I2C_Read1ByteRegister@returnValue(1), 
  3801 ;; Auto vars:     Size  Location     Type
  3802 ;;		None
  3803 ;; Return value:  Size  Location     Type
  3804 ;;                  1    wreg      enum E363
  3805 ;; Registers used:
  3806 ;;		wreg, fsr2l, fsr2h, status,2, status,0, prodl, prodh, cstack
  3807 ;; Tracked objects:
  3808 ;;		On entry : 0/0
  3809 ;;		On exit  : 0/0
  3810 ;;		Unchanged: 0/0
  3811 ;; Data sizes:     COMRAM   BANK0   BANK1   BANK2   BANK3   BANK4   BANK5   BANK6   BANK7   BANK8   BANK9  BANK10  BANK1
      +1  BANK12  BANK13  BANK14
  3812 ;;      Params:         2       0       0       0       0       0       0       0       0       0       0       0       
      +0       0       0       0
  3813 ;;      Locals:         0       0       0       0       0       0       0       0       0       0       0       0       
      +0       0       0       0
  3814 ;;      Temps:          0       0       0       0       0       0       0       0       0       0       0       0       
      +0       0       0       0
  3815 ;;      Totals:         2       0       0       0       0       0       0       0       0       0       0       0       
      +0       0       0       0
  3816 ;;Total ram usage:        2 bytes
  3817 ;; Hardware stack levels used: 1
  3818 ;; Hardware stack levels required when called: 6
  3819 ;; This function calls:
  3820 ;;		_I2C_SetBuffer
  3821 ;;		_I2C_SetDataCompleteCallback
  3822 ;; This function is called by:
  3823 ;;		_I2C_Write2ByteRegister
  3824 ;;		_I2C_DO_TX
  3825 ;;		_I2C_DO_RX
  3826 ;;		_I2C_DO_TX_EMPTY
  3827 ;;		_I2C_DO_ADDRESS_NACK
  3828 ;;		_I2C_DO_RX_EMPTY
  3829 ;; This function uses a non-reentrant model
  3830 ;;
  3831                           
  3832                           	psect	text47
  3833   0016BC                     __ptext47:
  3834                           	callstack 0
  3835   0016BC                     _wr2RegCompleteHandler:
  3836                           	callstack 20
  3837   0016BC                     
  3838                           ;mcc_generated_files/examples/i2c_master_example.c: 163: static i2c_operations_t wr2RegC
      +                          ompleteHandler(void *ptr);mcc_generated_files/examples/i2c_master_example.c: 164: {;mcc_
      +                          generated_files/examples/i2c_master_example.c: 165:     I2C_SetBuffer(ptr,2);
  3839   0016BC  C00E  F005         	movff	wr2RegCompleteHandler@ptr,I2C_SetBuffer@buffer
  3840   0016C0  C00F  F006         	movff	wr2RegCompleteHandler@ptr+1,I2C_SetBuffer@buffer+1
  3841   0016C4  0E00               	movlw	0
  3842   0016C6  6E08               	movwf	(I2C_SetBuffer@bufferSize+1)^0,c
  3843   0016C8  0E02               	movlw	2
  3844   0016CA  6E07               	movwf	I2C_SetBuffer@bufferSize^0,c
  3845   0016CC  ECC4  F00B         	call	_I2C_SetBuffer	;wreg free
  3846   0016D0                     
  3847                           ;mcc_generated_files/examples/i2c_master_example.c: 166:     I2C_SetDataCompleteCallback
      +                          (((void*)0),((void*)0));
  3848   0016D0  0E00               	movlw	0
  3849   0016D2  6E0A               	movwf	I2C_SetDataCompleteCallback@cb^0,c
  3850   0016D4  0E00               	movlw	0
  3851   0016D6  6E0B               	movwf	(I2C_SetDataCompleteCallback@cb+1)^0,c
  3852   0016D8  0E00               	movlw	0
  3853   0016DA  6E0C               	movwf	I2C_SetDataCompleteCallback@ptr^0,c
  3854   0016DC  0E00               	movlw	0
  3855   0016DE  6E0D               	movwf	(I2C_SetDataCompleteCallback@ptr+1)^0,c
  3856   0016E0  ECF6  F00B         	call	_I2C_SetDataCompleteCallback	;wreg free
  3857   0016E4                     
  3858                           ;mcc_generated_files/examples/i2c_master_example.c: 167:     return I2C_CONTINUE;
  3859   0016E4  0E04               	movlw	4
  3860   0016E6  0012               	return		;funcret
  3861   0016E8                     __end_of_wr2RegCompleteHandler:
  3862                           	callstack 0
  3863                           
  3864 ;; *************** function _I2C_SetDataCompleteCallback *****************
  3865 ;; Defined at:
  3866 ;;		line 273 in file "mcc_generated_files/i2c_master.c"
  3867 ;; Parameters:    Size  Location     Type
  3868 ;;  cb              2    9[COMRAM] PTR FTN(PTR void ,)enum 
  3869 ;;		 -> NULL(1), rdBlkRegCompleteHandler(1), wr2RegCompleteHandler(1), wr1RegCompleteHandler(1), 
  3870 ;;		 -> rd2RegCompleteHandler(1), rd1RegCompleteHandler(1), 
  3871 ;;  ptr             2   11[COMRAM] PTR void 
  3872 ;;		 -> I2C_ReadDataBlock@bufferBlock(4), I2C_Write2ByteRegister@data(2), I2C_Write1ByteRegister@data(1), I2C_Read2ByteR
      +egister@returnValue(2), 
  3873 ;;		 -> NULL(0), I2C_Read1ByteRegister@returnValue(1), 
  3874 ;; Auto vars:     Size  Location     Type
  3875 ;;		None
  3876 ;; Return value:  Size  Location     Type
  3877 ;;                  1    wreg      void 
  3878 ;; Registers used:
  3879 ;;		wreg, fsr2l, fsr2h, status,2, status,0, prodl, prodh, cstack
  3880 ;; Tracked objects:
  3881 ;;		On entry : 0/0
  3882 ;;		On exit  : 0/0
  3883 ;;		Unchanged: 0/0
  3884 ;; Data sizes:     COMRAM   BANK0   BANK1   BANK2   BANK3   BANK4   BANK5   BANK6   BANK7   BANK8   BANK9  BANK10  BANK1
      +1  BANK12  BANK13  BANK14
  3885 ;;      Params:         4       0       0       0       0       0       0       0       0       0       0       0       
      +0       0       0       0
  3886 ;;      Locals:         0       0       0       0       0       0       0       0       0       0       0       0       
      +0       0       0       0
  3887 ;;      Temps:          0       0       0       0       0       0       0       0       0       0       0       0       
      +0       0       0       0
  3888 ;;      Totals:         4       0       0       0       0       0       0       0       0       0       0       0       
      +0       0       0       0
  3889 ;;Total ram usage:        4 bytes
  3890 ;; Hardware stack levels used: 1
  3891 ;; Hardware stack levels required when called: 5
  3892 ;; This function calls:
  3893 ;;		_I2C_SetCallback
  3894 ;; This function is called by:
  3895 ;;		_rd1RegCompleteHandler
  3896 ;;		_rd2RegCompleteHandler
  3897 ;;		_wr1RegCompleteHandler
  3898 ;;		_wr2RegCompleteHandler
  3899 ;;		_rdBlkRegCompleteHandler
  3900 ;;		_I2C_Read1ByteRegister
  3901 ;;		_I2C_Read2ByteRegister
  3902 ;;		_I2C_Write1ByteRegister
  3903 ;;		_I2C_Write2ByteRegister
  3904 ;;		_I2C_ReadDataBlock
  3905 ;; This function uses a non-reentrant model
  3906 ;;
  3907                           
  3908                           	psect	text48
  3909   0017EC                     __ptext48:
  3910                           	callstack 0
  3911   0017EC                     _I2C_SetDataCompleteCallback:
  3912                           	callstack 20
  3913   0017EC                     
  3914                           ;mcc_generated_files/i2c_master.c: 273: void I2C_SetDataCompleteCallback(i2c_callback_t 
      +                          cb, void *ptr);mcc_generated_files/i2c_master.c: 274: {;mcc_generated_files/i2c_master.c
      +                          : 275:     I2C_SetCallback(I2C_DATA_COMPLETE, cb, ptr);
  3915   0017EC  C00A  F005         	movff	I2C_SetDataCompleteCallback@cb,I2C_SetCallback@cb
  3916   0017F0  C00B  F006         	movff	I2C_SetDataCompleteCallback@cb+1,I2C_SetCallback@cb+1
  3917   0017F4  C00C  F007         	movff	I2C_SetDataCompleteCallback@ptr,I2C_SetCallback@ptr
  3918   0017F8  C00D  F008         	movff	I2C_SetDataCompleteCallback@ptr+1,I2C_SetCallback@ptr+1
  3919   0017FC  0E00               	movlw	0
  3920   0017FE  EC88  F00A         	call	_I2C_SetCallback
  3921   001802  0012               	return		;funcret
  3922   001804                     __end_of_I2C_SetDataCompleteCallback:
  3923                           	callstack 0
  3924                           
  3925 ;; *************** function _I2C_SetCallback *****************
  3926 ;; Defined at:
  3927 ;;		line 298 in file "mcc_generated_files/i2c_master.c"
  3928 ;; Parameters:    Size  Location     Type
  3929 ;;  idx             1    wreg     enum E12620
  3930 ;;  cb              2    4[COMRAM] PTR FTN(PTR void ,)enum 
  3931 ;;		 -> NULL(1), rdBlkRegCompleteHandler(1), wr2RegCompleteHandler(1), wr1RegCompleteHandler(1), 
  3932 ;;		 -> rd2RegCompleteHandler(1), rd1RegCompleteHandler(1), 
  3933 ;;  ptr             2    6[COMRAM] PTR void 
  3934 ;;		 -> I2C_ReadDataBlock@bufferBlock(4), I2C_Write2ByteRegister@data(2), I2C_Write1ByteRegister@data(1), I2C_Read2ByteR
      +egister@returnValue(2), 
  3935 ;;		 -> NULL(0), I2C_Read1ByteRegister@returnValue(1), 
  3936 ;; Auto vars:     Size  Location     Type
  3937 ;;  idx             1    8[COMRAM] enum E12620
  3938 ;; Return value:  Size  Location     Type
  3939 ;;                  1    wreg      void 
  3940 ;; Registers used:
  3941 ;;		wreg, fsr2l, fsr2h, status,2, status,0, prodl, prodh
  3942 ;; Tracked objects:
  3943 ;;		On entry : 0/0
  3944 ;;		On exit  : 0/0
  3945 ;;		Unchanged: 0/0
  3946 ;; Data sizes:     COMRAM   BANK0   BANK1   BANK2   BANK3   BANK4   BANK5   BANK6   BANK7   BANK8   BANK9  BANK10  BANK1
      +1  BANK12  BANK13  BANK14
  3947 ;;      Params:         4       0       0       0       0       0       0       0       0       0       0       0       
      +0       0       0       0
  3948 ;;      Locals:         1       0       0       0       0       0       0       0       0       0       0       0       
      +0       0       0       0
  3949 ;;      Temps:          0       0       0       0       0       0       0       0       0       0       0       0       
      +0       0       0       0
  3950 ;;      Totals:         5       0       0       0       0       0       0       0       0       0       0       0       
      +0       0       0       0
  3951 ;;Total ram usage:        5 bytes
  3952 ;; Hardware stack levels used: 1
  3953 ;; Hardware stack levels required when called: 4
  3954 ;; This function calls:
  3955 ;;		Nothing
  3956 ;; This function is called by:
  3957 ;;		_I2C_SetDataCompleteCallback
  3958 ;;		_I2C_SetWriteCollisionCallback
  3959 ;;		_I2C_SetAddressNackCallback
  3960 ;;		_I2C_SetDataNackCallback
  3961 ;;		_I2C_SetTimeoutCallback
  3962 ;; This function uses a non-reentrant model
  3963 ;;
  3964                           
  3965                           	psect	text49
  3966   001510                     __ptext49:
  3967                           	callstack 0
  3968   001510                     _I2C_SetCallback:
  3969                           	callstack 20
  3970                           
  3971                           ;incstack = 0
  3972                           ;I2C_SetCallback@idx stored from wreg
  3973   001510  6E09               	movwf	I2C_SetCallback@idx^0,c
  3974   001512                     
  3975                           ;mcc_generated_files/i2c_master.c: 298: static void I2C_SetCallback(i2c_callbackIndex_t 
      +                          idx, i2c_callback_t cb, void *ptr);mcc_generated_files/i2c_master.c: 299: {;mcc_generate
      +                          d_files/i2c_master.c: 300:     if(cb)
  3976   001512  5005               	movf	I2C_SetCallback@cb^0,w,c
  3977   001514  1006               	iorwf	(I2C_SetCallback@cb+1)^0,w,c
  3978   001516  B4D8               	btfsc	status,2,c
  3979   001518  EF90  F00A         	goto	u1291
  3980   00151C  EF92  F00A         	goto	u1290
  3981   001520                     u1291:
  3982   001520  EFA8  F00A         	goto	l3066
  3983   001524                     u1290:
  3984   001524                     
  3985                           ;mcc_generated_files/i2c_master.c: 301:     {;mcc_generated_files/i2c_master.c: 302:    
      +                               I2C_Status.callbackTable[idx] = cb;
  3986   001524  5009               	movf	I2C_SetCallback@idx^0,w,c
  3987   001526  0D02               	mullw	2
  3988   001528  50F3               	movf	243,w,c
  3989   00152A  0F9E               	addlw	low _I2C_Status
  3990   00152C  6ED9               	movwf	fsr2l,c
  3991   00152E  6ADA               	clrf	fsr2h,c
  3992   001530  C005  FFDE         	movff	I2C_SetCallback@cb,postinc2
  3993   001534  C006  FFDD         	movff	I2C_SetCallback@cb+1,postdec2
  3994                           
  3995                           ;mcc_generated_files/i2c_master.c: 303:         I2C_Status.callbackPayload[idx] = ptr;
  3996   001538  5009               	movf	I2C_SetCallback@idx^0,w,c
  3997   00153A  0D02               	mullw	2
  3998   00153C  50F3               	movf	243,w,c
  3999   00153E  0FAA               	addlw	low (_I2C_Status+12)
  4000   001540  6ED9               	movwf	fsr2l,c
  4001   001542  6ADA               	clrf	fsr2h,c
  4002   001544  C007  FFDE         	movff	I2C_SetCallback@ptr,postinc2
  4003   001548  C008  FFDD         	movff	I2C_SetCallback@ptr+1,postdec2
  4004                           
  4005                           ;mcc_generated_files/i2c_master.c: 304:     }
  4006   00154C  EFBA  F00A         	goto	l256
  4007   001550                     l3066:
  4008                           
  4009                           ;mcc_generated_files/i2c_master.c: 306:     {;mcc_generated_files/i2c_master.c: 307:    
      +                               I2C_Status.callbackTable[idx] = I2C_CallbackReturnStop;
  4010   001550  5009               	movf	I2C_SetCallback@idx^0,w,c
  4011   001552  0D02               	mullw	2
  4012   001554  50F3               	movf	243,w,c
  4013   001556  0F9E               	addlw	low _I2C_Status
  4014   001558  6ED9               	movwf	fsr2l,c
  4015   00155A  6ADA               	clrf	fsr2h,c
  4016   00155C  0E46               	movlw	low _I2C_CallbackReturnStop
  4017   00155E  6EDE               	movwf	postinc2,c
  4018   001560  0E19               	movlw	high _I2C_CallbackReturnStop
  4019   001562  6EDD               	movwf	postdec2,c
  4020                           
  4021                           ;mcc_generated_files/i2c_master.c: 308:         I2C_Status.callbackPayload[idx] = ((void
      +                          *)0);
  4022   001564  5009               	movf	I2C_SetCallback@idx^0,w,c
  4023   001566  0D02               	mullw	2
  4024   001568  50F3               	movf	243,w,c
  4025   00156A  0FAA               	addlw	low (_I2C_Status+12)
  4026   00156C  6ED9               	movwf	fsr2l,c
  4027   00156E  6ADA               	clrf	fsr2h,c
  4028   001570  6ADE               	clrf	postinc2,c
  4029   001572  6ADD               	clrf	postdec2,c
  4030   001574                     l256:
  4031   001574  0012               	return		;funcret
  4032   001576                     __end_of_I2C_SetCallback:
  4033                           	callstack 0
  4034                           
  4035 ;; *************** function _I2C_SetBuffer *****************
  4036 ;; Defined at:
  4037 ;;		line 263 in file "mcc_generated_files/i2c_master.c"
  4038 ;; Parameters:    Size  Location     Type
  4039 ;;  buffer          2    4[COMRAM] PTR void 
  4040 ;;		 -> I2C_Read1ByteRegister@returnValue$data(3), I2C_Read2ByteRegister@returnValue$data(3), I2C_Write1ByteRegister@dat
      +a$data(3), I2C_Write2ByteRegister@data$data(3), 
  4041 ;;		 -> main@Addr2(20), main@addr(20), I2C_ReadDataBlock@reg(1), I2C_ReadDataBlock@bufferBlock(4), 
  4042 ;;		 -> bufferBlock$data(3), I2C_Write2ByteRegister@reg(1), I2C_Write2ByteRegister@data(2), I2C_Write1ByteRegister@reg(1
      +), 
  4043 ;;		 -> I2C_Write1ByteRegister@data(1), I2C_Read2ByteRegister@reg(1), I2C_Read2ByteRegister@returnValue(2), NULL(0), 
  4044 ;;		 -> I2C_Read1ByteRegister@reg(1), I2C_Read1ByteRegister@returnValue(1), 
  4045 ;;  bufferSize      2    6[COMRAM] unsigned int 
  4046 ;; Auto vars:     Size  Location     Type
  4047 ;;		None
  4048 ;; Return value:  Size  Location     Type
  4049 ;;                  1    wreg      void 
  4050 ;; Registers used:
  4051 ;;		wreg, status,2, status,0
  4052 ;; Tracked objects:
  4053 ;;		On entry : 0/0
  4054 ;;		On exit  : 0/0
  4055 ;;		Unchanged: 0/0
  4056 ;; Data sizes:     COMRAM   BANK0   BANK1   BANK2   BANK3   BANK4   BANK5   BANK6   BANK7   BANK8   BANK9  BANK10  BANK1
      +1  BANK12  BANK13  BANK14
  4057 ;;      Params:         4       0       0       0       0       0       0       0       0       0       0       0       
      +0       0       0       0
  4058 ;;      Locals:         0       0       0       0       0       0       0       0       0       0       0       0       
      +0       0       0       0
  4059 ;;      Temps:          0       0       0       0       0       0       0       0       0       0       0       0       
      +0       0       0       0
  4060 ;;      Totals:         4       0       0       0       0       0       0       0       0       0       0       0       
      +0       0       0       0
  4061 ;;Total ram usage:        4 bytes
  4062 ;; Hardware stack levels used: 1
  4063 ;; Hardware stack levels required when called: 4
  4064 ;; This function calls:
  4065 ;;		Nothing
  4066 ;; This function is called by:
  4067 ;;		_rd1RegCompleteHandler
  4068 ;;		_rd2RegCompleteHandler
  4069 ;;		_wr1RegCompleteHandler
  4070 ;;		_wr2RegCompleteHandler
  4071 ;;		_rdBlkRegCompleteHandler
  4072 ;;		_main
  4073 ;;		_I2C_Read1ByteRegister
  4074 ;;		_I2C_Read2ByteRegister
  4075 ;;		_I2C_Write1ByteRegister
  4076 ;;		_I2C_Write2ByteRegister
  4077 ;;		_I2C_WriteNBytes
  4078 ;;		_I2C_ReadNBytes
  4079 ;;		_I2C_ReadDataBlock
  4080 ;; This function uses a non-reentrant model
  4081 ;;
  4082                           
  4083                           	psect	text50
  4084   001788                     __ptext50:
  4085                           	callstack 0
  4086   001788                     _I2C_SetBuffer:
  4087                           	callstack 26
  4088   001788                     
  4089                           ;mcc_generated_files/i2c_master.c: 263: void I2C_SetBuffer(void *buffer, size_t bufferSi
      +                          ze);mcc_generated_files/i2c_master.c: 264: {;mcc_generated_files/i2c_master.c: 265:     
      +                          if(I2C_Status.bufferFree)
  4090   001788  0100               	movlb	0	; () banked
  4091   00178A  A7C1               	btfss	(_I2C_Status+35)& (0+255),3,b
  4092   00178C  EFCA  F00B         	goto	u1301
  4093   001790  EFCC  F00B         	goto	u1300
  4094   001794                     u1301:
  4095   001794  EFD5  F00B         	goto	l236
  4096   001798                     u1300:
  4097   001798                     
  4098                           ; BSR set to: 0
  4099                           ;mcc_generated_files/i2c_master.c: 266:     {;mcc_generated_files/i2c_master.c: 267:    
      +                               I2C_Status.data_ptr = buffer;
  4100   001798  C005  F0BB         	movff	I2C_SetBuffer@buffer,_I2C_Status+29
  4101   00179C  C006  F0BC         	movff	I2C_SetBuffer@buffer+1,_I2C_Status+30
  4102   0017A0                     
  4103                           ; BSR set to: 0
  4104                           ;mcc_generated_files/i2c_master.c: 268:         I2C_Status.data_length = bufferSize;
  4105   0017A0  C007  F0BD         	movff	I2C_SetBuffer@bufferSize,_I2C_Status+31
  4106   0017A4  C008  F0BE         	movff	I2C_SetBuffer@bufferSize+1,_I2C_Status+32
  4107   0017A8                     
  4108                           ; BSR set to: 0
  4109                           ;mcc_generated_files/i2c_master.c: 269:         I2C_Status.bufferFree = 0;
  4110   0017A8  97C1               	bcf	(_I2C_Status+35)& (0+255),3,b
  4111   0017AA                     l236:
  4112                           
  4113                           ; BSR set to: 0
  4114   0017AA  0012               	return		;funcret
  4115   0017AC                     __end_of_I2C_SetBuffer:
  4116                           	callstack 0
  4117                           
  4118 ;; *************** function _I2C_MasterStop *****************
  4119 ;; Defined at:
  4120 ;;		line 593 in file "mcc_generated_files/i2c_master.c"
  4121 ;; Parameters:    Size  Location     Type
  4122 ;;		None
  4123 ;; Auto vars:     Size  Location     Type
  4124 ;;		None
  4125 ;; Return value:  Size  Location     Type
  4126 ;;                  1    wreg      void 
  4127 ;; Registers used:
  4128 ;;		None
  4129 ;; Tracked objects:
  4130 ;;		On entry : 0/0
  4131 ;;		On exit  : 0/0
  4132 ;;		Unchanged: 0/0
  4133 ;; Data sizes:     COMRAM   BANK0   BANK1   BANK2   BANK3   BANK4   BANK5   BANK6   BANK7   BANK8   BANK9  BANK10  BANK1
      +1  BANK12  BANK13  BANK14
  4134 ;;      Params:         0       0       0       0       0       0       0       0       0       0       0       0       
      +0       0       0       0
  4135 ;;      Locals:         0       0       0       0       0       0       0       0       0       0       0       0       
      +0       0       0       0
  4136 ;;      Temps:          0       0       0       0       0       0       0       0       0       0       0       0       
      +0       0       0       0
  4137 ;;      Totals:         0       0       0       0       0       0       0       0       0       0       0       0       
      +0       0       0       0
  4138 ;;Total ram usage:        0 bytes
  4139 ;; Hardware stack levels used: 1
  4140 ;; Hardware stack levels required when called: 4
  4141 ;; This function calls:
  4142 ;;		Nothing
  4143 ;; This function is called by:
  4144 ;;		_I2C_DO_SEND_STOP
  4145 ;; This function uses a non-reentrant model
  4146 ;;
  4147                           
  4148                           	psect	text51
  4149   00194A                     __ptext51:
  4150                           	callstack 0
  4151   00194A                     _I2C_MasterStop:
  4152                           	callstack 21
  4153   00194A                     
  4154                           ;mcc_generated_files/i2c_master.c: 595:     SSPCON2bits.PEN = 1;
  4155   00194A  84C5               	bsf	197,2,c	;volatile
  4156   00194C  0012               	return		;funcret
  4157   00194E                     __end_of_I2C_MasterStop:
  4158                           	callstack 0
  4159                           
  4160 ;; *************** function _I2C_MasterEnableRestart *****************
  4161 ;; Defined at:
  4162 ;;		line 573 in file "mcc_generated_files/i2c_master.c"
  4163 ;; Parameters:    Size  Location     Type
  4164 ;;		None
  4165 ;; Auto vars:     Size  Location     Type
  4166 ;;		None
  4167 ;; Return value:  Size  Location     Type
  4168 ;;                  1    wreg      void 
  4169 ;; Registers used:
  4170 ;;		None
  4171 ;; Tracked objects:
  4172 ;;		On entry : 0/0
  4173 ;;		On exit  : 0/0
  4174 ;;		Unchanged: 0/0
  4175 ;; Data sizes:     COMRAM   BANK0   BANK1   BANK2   BANK3   BANK4   BANK5   BANK6   BANK7   BANK8   BANK9  BANK10  BANK1
      +1  BANK12  BANK13  BANK14
  4176 ;;      Params:         0       0       0       0       0       0       0       0       0       0       0       0       
      +0       0       0       0
  4177 ;;      Locals:         0       0       0       0       0       0       0       0       0       0       0       0       
      +0       0       0       0
  4178 ;;      Temps:          0       0       0       0       0       0       0       0       0       0       0       0       
      +0       0       0       0
  4179 ;;      Totals:         0       0       0       0       0       0       0       0       0       0       0       0       
      +0       0       0       0
  4180 ;;Total ram usage:        0 bytes
  4181 ;; Hardware stack levels used: 1
  4182 ;; Hardware stack levels required when called: 4
  4183 ;; This function calls:
  4184 ;;		Nothing
  4185 ;; This function is called by:
  4186 ;;		_I2C_DO_SEND_RESTART_READ
  4187 ;;		_I2C_DO_SEND_RESTART_WRITE
  4188 ;;		_I2C_DO_SEND_RESTART
  4189 ;;		_I2C_DO_RX_EMPTY
  4190 ;; This function uses a non-reentrant model
  4191 ;;
  4192                           
  4193                           	psect	text52
  4194   00194E                     __ptext52:
  4195                           	callstack 0
  4196   00194E                     _I2C_MasterEnableRestart:
  4197                           	callstack 21
  4198   00194E                     
  4199                           ;mcc_generated_files/i2c_master.c: 575:     SSPCON2bits.RSEN = 1;
  4200   00194E  82C5               	bsf	197,1,c	;volatile
  4201   001950  0012               	return		;funcret
  4202   001952                     __end_of_I2C_MasterEnableRestart:
  4203                           	callstack 0
  4204                           
  4205 ;; *************** function _I2C_MasterStart *****************
  4206 ;; Defined at:
  4207 ;;		line 588 in file "mcc_generated_files/i2c_master.c"
  4208 ;; Parameters:    Size  Location     Type
  4209 ;;		None
  4210 ;; Auto vars:     Size  Location     Type
  4211 ;;		None
  4212 ;; Return value:  Size  Location     Type
  4213 ;;                  1    wreg      void 
  4214 ;; Registers used:
  4215 ;;		None
  4216 ;; Tracked objects:
  4217 ;;		On entry : 0/0
  4218 ;;		On exit  : 0/0
  4219 ;;		Unchanged: 0/0
  4220 ;; Data sizes:     COMRAM   BANK0   BANK1   BANK2   BANK3   BANK4   BANK5   BANK6   BANK7   BANK8   BANK9  BANK10  BANK1
      +1  BANK12  BANK13  BANK14
  4221 ;;      Params:         0       0       0       0       0       0       0       0       0       0       0       0       
      +0       0       0       0
  4222 ;;      Locals:         0       0       0       0       0       0       0       0       0       0       0       0       
      +0       0       0       0
  4223 ;;      Temps:          0       0       0       0       0       0       0       0       0       0       0       0       
      +0       0       0       0
  4224 ;;      Totals:         0       0       0       0       0       0       0       0       0       0       0       0       
      +0       0       0       0
  4225 ;;Total ram usage:        0 bytes
  4226 ;; Hardware stack levels used: 1
  4227 ;; Hardware stack levels required when called: 4
  4228 ;; This function calls:
  4229 ;;		Nothing
  4230 ;; This function is called by:
  4231 ;;		_I2C_MasterOperation
  4232 ;; This function uses a non-reentrant model
  4233 ;;
  4234                           
  4235                           	psect	text53
  4236   001952                     __ptext53:
  4237                           	callstack 0
  4238   001952                     _I2C_MasterStart:
  4239                           	callstack 25
  4240   001952                     
  4241                           ;mcc_generated_files/i2c_master.c: 590:     SSPCON2bits.SEN = 1;
  4242   001952  80C5               	bsf	197,0,c	;volatile
  4243   001954  0012               	return		;funcret
  4244   001956                     __end_of_I2C_MasterStart:
  4245                           	callstack 0
  4246                           
  4247 ;; *************** function _I2C_Close *****************
  4248 ;; Defined at:
  4249 ;;		line 209 in file "mcc_generated_files/i2c_master.c"
  4250 ;; Parameters:    Size  Location     Type
  4251 ;;		None
  4252 ;; Auto vars:     Size  Location     Type
  4253 ;;  returnValue     1    4[COMRAM] enum E358
  4254 ;; Return value:  Size  Location     Type
  4255 ;;                  1    wreg      enum E358
  4256 ;; Registers used:
  4257 ;;		wreg, status,2, cstack
  4258 ;; Tracked objects:
  4259 ;;		On entry : 0/0
  4260 ;;		On exit  : 0/0
  4261 ;;		Unchanged: 0/0
  4262 ;; Data sizes:     COMRAM   BANK0   BANK1   BANK2   BANK3   BANK4   BANK5   BANK6   BANK7   BANK8   BANK9  BANK10  BANK1
      +1  BANK12  BANK13  BANK14
  4263 ;;      Params:         0       0       0       0       0       0       0       0       0       0       0       0       
      +0       0       0       0
  4264 ;;      Locals:         1       0       0       0       0       0       0       0       0       0       0       0       
      +0       0       0       0
  4265 ;;      Temps:          0       0       0       0       0       0       0       0       0       0       0       0       
      +0       0       0       0
  4266 ;;      Totals:         1       0       0       0       0       0       0       0       0       0       0       0       
      +0       0       0       0
  4267 ;;Total ram usage:        1 bytes
  4268 ;; Hardware stack levels used: 1
  4269 ;; Hardware stack levels required when called: 5
  4270 ;; This function calls:
  4271 ;;		_I2C_MasterClearIrq
  4272 ;;		_I2C_MasterClose
  4273 ;;		_I2C_MasterDisableIrq
  4274 ;; This function is called by:
  4275 ;;		_main
  4276 ;;		_I2C_Read1ByteRegister
  4277 ;;		_I2C_Read2ByteRegister
  4278 ;;		_I2C_Write1ByteRegister
  4279 ;;		_I2C_Write2ByteRegister
  4280 ;;		_I2C_WriteNBytes
  4281 ;;		_I2C_ReadNBytes
  4282 ;;		_I2C_ReadDataBlock
  4283 ;; This function uses a non-reentrant model
  4284 ;;
  4285                           
  4286                           	psect	text54
  4287   0016E8                     __ptext54:
  4288                           	callstack 0
  4289   0016E8                     _I2C_Close:
  4290                           	callstack 25
  4291   0016E8                     
  4292                           ;mcc_generated_files/i2c_master.c: 211:     i2c_error_t returnValue = I2C_BUSY;
  4293   0016E8  0E01               	movlw	1
  4294   0016EA  6E05               	movwf	I2C_Close@returnValue^0,c
  4295   0016EC                     
  4296                           ;mcc_generated_files/i2c_master.c: 212:     if(!I2C_Status.busy)
  4297   0016EC  0100               	movlb	0	; () banked
  4298   0016EE  B3C1               	btfsc	(_I2C_Status+35)& (0+255),1,b
  4299   0016F0  EF7C  F00B         	goto	u1461
  4300   0016F4  EF7E  F00B         	goto	u1460
  4301   0016F8                     u1461:
  4302   0016F8  EF88  F00B         	goto	l3480
  4303   0016FC                     u1460:
  4304   0016FC                     
  4305                           ; BSR set to: 0
  4306                           ;mcc_generated_files/i2c_master.c: 213:     {;mcc_generated_files/i2c_master.c: 214:    
      +                               I2C_Status.inUse = 0;
  4307   0016FC  95C1               	bcf	(_I2C_Status+35)& (0+255),2,b
  4308                           
  4309                           ;mcc_generated_files/i2c_master.c: 215:         I2C_Status.address = 0xff;
  4310   0016FE  69BA               	setf	(_I2C_Status+28)& (0+255),b
  4311   001700                     
  4312                           ; BSR set to: 0
  4313                           ;mcc_generated_files/i2c_master.c: 216:         I2C_MasterClearIrq();
  4314   001700  ECAF  F00C         	call	_I2C_MasterClearIrq	;wreg free
  4315                           
  4316                           ;mcc_generated_files/i2c_master.c: 217:         I2C_MasterDisableIrq();
  4317   001704  ECAB  F00C         	call	_I2C_MasterDisableIrq	;wreg free
  4318                           
  4319                           ;mcc_generated_files/i2c_master.c: 218:         I2C_MasterClose();
  4320   001708  ECAD  F00C         	call	_I2C_MasterClose	;wreg free
  4321   00170C                     
  4322                           ;mcc_generated_files/i2c_master.c: 219:         returnValue = I2C_Status.error;
  4323   00170C  C0C0  F005         	movff	_I2C_Status+34,I2C_Close@returnValue
  4324   001710                     l3480:
  4325                           
  4326                           ;mcc_generated_files/i2c_master.c: 221:     return returnValue;
  4327   001710  5005               	movf	I2C_Close@returnValue^0,w,c
  4328   001712  0012               	return		;funcret
  4329   001714                     __end_of_I2C_Close:
  4330                           	callstack 0
  4331                           
  4332 ;; *************** function _I2C_MasterDisableIrq *****************
  4333 ;; Defined at:
  4334 ;;		line 635 in file "mcc_generated_files/i2c_master.c"
  4335 ;; Parameters:    Size  Location     Type
  4336 ;;		None
  4337 ;; Auto vars:     Size  Location     Type
  4338 ;;		None
  4339 ;; Return value:  Size  Location     Type
  4340 ;;                  1    wreg      void 
  4341 ;; Registers used:
  4342 ;;		None
  4343 ;; Tracked objects:
  4344 ;;		On entry : 0/0
  4345 ;;		On exit  : 0/0
  4346 ;;		Unchanged: 0/0
  4347 ;; Data sizes:     COMRAM   BANK0   BANK1   BANK2   BANK3   BANK4   BANK5   BANK6   BANK7   BANK8   BANK9  BANK10  BANK1
      +1  BANK12  BANK13  BANK14
  4348 ;;      Params:         0       0       0       0       0       0       0       0       0       0       0       0       
      +0       0       0       0
  4349 ;;      Locals:         0       0       0       0       0       0       0       0       0       0       0       0       
      +0       0       0       0
  4350 ;;      Temps:          0       0       0       0       0       0       0       0       0       0       0       0       
      +0       0       0       0
  4351 ;;      Totals:         0       0       0       0       0       0       0       0       0       0       0       0       
      +0       0       0       0
  4352 ;;Total ram usage:        0 bytes
  4353 ;; Hardware stack levels used: 1
  4354 ;; Hardware stack levels required when called: 4
  4355 ;; This function calls:
  4356 ;;		Nothing
  4357 ;; This function is called by:
  4358 ;;		_I2C_Close
  4359 ;;		_I2C_SetTimeOut
  4360 ;; This function uses a non-reentrant model
  4361 ;;
  4362                           
  4363                           	psect	text55
  4364   001956                     __ptext55:
  4365                           	callstack 0
  4366   001956                     _I2C_MasterDisableIrq:
  4367                           	callstack 25
  4368   001956                     
  4369                           ;mcc_generated_files/i2c_master.c: 637:     PIE1bits.SSPIE = 0;
  4370   001956  969D               	bcf	157,3,c	;volatile
  4371   001958  0012               	return		;funcret
  4372   00195A                     __end_of_I2C_MasterDisableIrq:
  4373                           	callstack 0
  4374                           
  4375 ;; *************** function _I2C_MasterClose *****************
  4376 ;; Defined at:
  4377 ;;		line 557 in file "mcc_generated_files/i2c_master.c"
  4378 ;; Parameters:    Size  Location     Type
  4379 ;;		None
  4380 ;; Auto vars:     Size  Location     Type
  4381 ;;		None
  4382 ;; Return value:  Size  Location     Type
  4383 ;;                  1    wreg      void 
  4384 ;; Registers used:
  4385 ;;		None
  4386 ;; Tracked objects:
  4387 ;;		On entry : 0/0
  4388 ;;		On exit  : 0/0
  4389 ;;		Unchanged: 0/0
  4390 ;; Data sizes:     COMRAM   BANK0   BANK1   BANK2   BANK3   BANK4   BANK5   BANK6   BANK7   BANK8   BANK9  BANK10  BANK1
      +1  BANK12  BANK13  BANK14
  4391 ;;      Params:         0       0       0       0       0       0       0       0       0       0       0       0       
      +0       0       0       0
  4392 ;;      Locals:         0       0       0       0       0       0       0       0       0       0       0       0       
      +0       0       0       0
  4393 ;;      Temps:          0       0       0       0       0       0       0       0       0       0       0       0       
      +0       0       0       0
  4394 ;;      Totals:         0       0       0       0       0       0       0       0       0       0       0       0       
      +0       0       0       0
  4395 ;;Total ram usage:        0 bytes
  4396 ;; Hardware stack levels used: 1
  4397 ;; Hardware stack levels required when called: 4
  4398 ;; This function calls:
  4399 ;;		Nothing
  4400 ;; This function is called by:
  4401 ;;		_I2C_Close
  4402 ;; This function uses a non-reentrant model
  4403 ;;
  4404                           
  4405                           	psect	text56
  4406   00195A                     __ptext56:
  4407                           	callstack 0
  4408   00195A                     _I2C_MasterClose:
  4409                           	callstack 25
  4410   00195A                     
  4411                           ;mcc_generated_files/i2c_master.c: 560:     SSPCON1bits.SSPEN = 0;
  4412   00195A  9AC6               	bcf	198,5,c	;volatile
  4413   00195C  0012               	return		;funcret
  4414   00195E                     __end_of_I2C_MasterClose:
  4415                           	callstack 0
  4416                           
  4417 ;; *************** function _I2C_MasterClearIrq *****************
  4418 ;; Defined at:
  4419 ;;		line 640 in file "mcc_generated_files/i2c_master.c"
  4420 ;; Parameters:    Size  Location     Type
  4421 ;;		None
  4422 ;; Auto vars:     Size  Location     Type
  4423 ;;		None
  4424 ;; Return value:  Size  Location     Type
  4425 ;;                  1    wreg      void 
  4426 ;; Registers used:
  4427 ;;		None
  4428 ;; Tracked objects:
  4429 ;;		On entry : 0/0
  4430 ;;		On exit  : 0/0
  4431 ;;		Unchanged: 0/0
  4432 ;; Data sizes:     COMRAM   BANK0   BANK1   BANK2   BANK3   BANK4   BANK5   BANK6   BANK7   BANK8   BANK9  BANK10  BANK1
      +1  BANK12  BANK13  BANK14
  4433 ;;      Params:         0       0       0       0       0       0       0       0       0       0       0       0       
      +0       0       0       0
  4434 ;;      Locals:         0       0       0       0       0       0       0       0       0       0       0       0       
      +0       0       0       0
  4435 ;;      Temps:          0       0       0       0       0       0       0       0       0       0       0       0       
      +0       0       0       0
  4436 ;;      Totals:         0       0       0       0       0       0       0       0       0       0       0       0       
      +0       0       0       0
  4437 ;;Total ram usage:        0 bytes
  4438 ;; Hardware stack levels used: 1
  4439 ;; Hardware stack levels required when called: 4
  4440 ;; This function calls:
  4441 ;;		Nothing
  4442 ;; This function is called by:
  4443 ;;		_I2C_Open
  4444 ;;		_I2C_Close
  4445 ;;		_I2C_MasterFsm
  4446 ;; This function uses a non-reentrant model
  4447 ;;
  4448                           
  4449                           	psect	text57
  4450   00195E                     __ptext57:
  4451                           	callstack 0
  4452   00195E                     _I2C_MasterClearIrq:
  4453                           	callstack 25
  4454   00195E                     
  4455                           ;mcc_generated_files/i2c_master.c: 642:     PIR1bits.SSPIF = 0;
  4456   00195E  969E               	bcf	158,3,c	;volatile
  4457   001960  0012               	return		;funcret
  4458   001962                     __end_of_I2C_MasterClearIrq:
  4459                           	callstack 0
  4460                           
  4461 ;; *************** function _INTERRUPT_InterruptManager *****************
  4462 ;; Defined at:
  4463 ;;		line 58 in file "mcc_generated_files/interrupt_manager.c"
  4464 ;; Parameters:    Size  Location     Type
  4465 ;;		None
  4466 ;; Auto vars:     Size  Location     Type
  4467 ;;		None
  4468 ;; Return value:  Size  Location     Type
  4469 ;;                  1    wreg      void 
  4470 ;; Registers used:
  4471 ;;		wreg, fsr2l, fsr2h, status,2, status,0, pcl, pclath, pclatu, tosl, cstack
  4472 ;; Tracked objects:
  4473 ;;		On entry : 0/0
  4474 ;;		On exit  : 0/0
  4475 ;;		Unchanged: 0/0
  4476 ;; Data sizes:     COMRAM   BANK0   BANK1   BANK2   BANK3   BANK4   BANK5   BANK6   BANK7   BANK8   BANK9  BANK10  BANK1
      +1  BANK12  BANK13  BANK14
  4477 ;;      Params:         0       0       0       0       0       0       0       0       0       0       0       0       
      +0       0       0       0
  4478 ;;      Locals:         0       0       0       0       0       0       0       0       0       0       0       0       
      +0       0       0       0
  4479 ;;      Temps:          4       0       0       0       0       0       0       0       0       0       0       0       
      +0       0       0       0
  4480 ;;      Totals:         4       0       0       0       0       0       0       0       0       0       0       0       
      +0       0       0       0
  4481 ;;Total ram usage:        4 bytes
  4482 ;; Hardware stack levels used: 1
  4483 ;; Hardware stack levels required when called: 3
  4484 ;; This function calls:
  4485 ;;		NULL
  4486 ;;		_EUSART1_Receive_ISR
  4487 ;;		_EUSART1_Transmit_ISR
  4488 ;; This function is called by:
  4489 ;;		Interrupt level 2
  4490 ;; This function uses a non-reentrant model
  4491 ;;
  4492                           
  4493                           	psect	intcode
  4494   000008                     __pintcode:
  4495                           	callstack 0
  4496   000008                     _INTERRUPT_InterruptManager:
  4497                           	callstack 20
  4498                           
  4499                           ;incstack = 0
  4500   000008  8221               	bsf	int$flags,1,c	;set compiler interrupt flag (level 2)
  4501   00000A  CFFA F001          	movff	pclath,??_INTERRUPT_InterruptManager
  4502   00000E  CFFB F002          	movff	pclatu,??_INTERRUPT_InterruptManager+1
  4503   000012  CFD9 F003          	movff	fsr2l,??_INTERRUPT_InterruptManager+2
  4504   000016  CFDA F004          	movff	fsr2h,??_INTERRUPT_InterruptManager+3
  4505   00001A                     
  4506                           ;mcc_generated_files/interrupt_manager.c: 61:     if(INTCONbits.PEIE == 1)
  4507   00001A  ACF2               	btfss	242,6,c	;volatile
  4508   00001C  EF12  F000         	goto	i2u115_41
  4509   000020  EF14  F000         	goto	i2u115_40
  4510   000024                     i2u115_41:
  4511   000024  EF4F  F000         	goto	i2l636
  4512   000028                     i2u115_40:
  4513   000028                     
  4514                           ;mcc_generated_files/interrupt_manager.c: 62:     {;mcc_generated_files/interrupt_manage
      +                          r.c: 63:         if(PIE1bits.TX1IE == 1 && PIR1bits.TX1IF == 1)
  4515   000028  A89D               	btfss	157,4,c	;volatile
  4516   00002A  EF19  F000         	goto	i2u116_41
  4517   00002E  EF1B  F000         	goto	i2u116_40
  4518   000032                     i2u116_41:
  4519   000032  EF31  F000         	goto	i2l631
  4520   000036                     i2u116_40:
  4521   000036  A89E               	btfss	158,4,c	;volatile
  4522   000038  EF20  F000         	goto	i2u117_41
  4523   00003C  EF22  F000         	goto	i2u117_40
  4524   000040                     i2u117_41:
  4525   000040  EF31  F000         	goto	i2l631
  4526   000044                     i2u117_40:
  4527   000044                     
  4528                           ;mcc_generated_files/interrupt_manager.c: 64:         {;mcc_generated_files/interrupt_ma
      +                          nager.c: 65:             EUSART1_TxDefaultInterruptHandler();
  4529   000044  D802               	call	i2u118_48
  4530   000046  EF2F  F000         	goto	i2u118_49
  4531   00004A                     i2u118_48:
  4532   00004A  0005               	push	
  4533   00004C  6EFA               	movwf	pclath,c
  4534   00004E  501F               	movf	_EUSART1_TxDefaultInterruptHandler^0,w,c
  4535   000050  6EFD               	movwf	tosl,c
  4536   000052  5020               	movf	(_EUSART1_TxDefaultInterruptHandler+1)^0,w,c
  4537   000054  6EFE               	movwf	tosh,c
  4538   000056  50F8               	movf	tblptru,w,c
  4539   000058  6EFF               	movwf	tosu,c
  4540   00005A  50FA               	movf	pclath,w,c
  4541   00005C  0012               	return		;indir
  4542   00005E                     i2u118_49:
  4543                           
  4544                           ;mcc_generated_files/interrupt_manager.c: 66:         }
  4545   00005E  EF4F  F000         	goto	i2l636
  4546   000062                     i2l631:
  4547   000062  AA9D               	btfss	157,5,c	;volatile
  4548   000064  EF36  F000         	goto	i2u119_41
  4549   000068  EF38  F000         	goto	i2u119_40
  4550   00006C                     i2u119_41:
  4551   00006C  EF4F  F000         	goto	i2l632
  4552   000070                     i2u119_40:
  4553   000070  AA9E               	btfss	158,5,c	;volatile
  4554   000072  EF3D  F000         	goto	i2u120_41
  4555   000076  EF3F  F000         	goto	i2u120_40
  4556   00007A                     i2u120_41:
  4557   00007A  EF4F  F000         	goto	i2l632
  4558   00007E                     i2u120_40:
  4559   00007E                     
  4560                           ;mcc_generated_files/interrupt_manager.c: 68:         {;mcc_generated_files/interrupt_ma
      +                          nager.c: 69:             EUSART1_RxDefaultInterruptHandler();
  4561   00007E  D802               	call	i2u121_48
  4562   000080  EF4D  F000         	goto	i2u121_49
  4563   000084                     i2u121_48:
  4564   000084  0005               	push	
  4565   000086  0100               	movlb	0	; () banked
  4566   000088  6EFA               	movwf	pclath,c
  4567   00008A  51E0               	movf	_EUSART1_RxDefaultInterruptHandler& (0+255),w,b
  4568   00008C  6EFD               	movwf	tosl,c
  4569   00008E  51E1               	movf	(_EUSART1_RxDefaultInterruptHandler+1)& (0+255),w,b
  4570   000090  6EFE               	movwf	tosh,c
  4571   000092  50F8               	movf	tblptru,w,c
  4572   000094  6EFF               	movwf	tosu,c
  4573   000096  50FA               	movf	pclath,w,c
  4574   000098  0012               	return		;indir
  4575   00009A                     i2u121_49:
  4576                           
  4577                           ;mcc_generated_files/interrupt_manager.c: 70:         }
  4578   00009A  EF4F  F000         	goto	i2l636
  4579   00009E                     i2l632:
  4580   00009E                     i2l636:
  4581   00009E  C004  FFDA         	movff	??_INTERRUPT_InterruptManager+3,fsr2h
  4582   0000A2  C003  FFD9         	movff	??_INTERRUPT_InterruptManager+2,fsr2l
  4583   0000A6  C002  FFFB         	movff	??_INTERRUPT_InterruptManager+1,pclatu
  4584   0000AA  C001  FFFA         	movff	??_INTERRUPT_InterruptManager,pclath
  4585   0000AE  9221               	bcf	int$flags,1,c	;clear compiler interrupt flag (level 2)
  4586   0000B0  0011               	retfie		f
  4587   0000B2                     __end_of_INTERRUPT_InterruptManager:
  4588                           	callstack 0
  4589                           
  4590 ;; *************** function _EUSART1_Transmit_ISR *****************
  4591 ;; Defined at:
  4592 ;;		line 206 in file "mcc_generated_files/eusart1.c"
  4593 ;; Parameters:    Size  Location     Type
  4594 ;;		None
  4595 ;; Auto vars:     Size  Location     Type
  4596 ;;		None
  4597 ;; Return value:  Size  Location     Type
  4598 ;;                  1    wreg      void 
  4599 ;; Registers used:
  4600 ;;		wreg, fsr2l, fsr2h, status,2, status,0
  4601 ;; Tracked objects:
  4602 ;;		On entry : 0/0
  4603 ;;		On exit  : 0/0
  4604 ;;		Unchanged: 0/0
  4605 ;; Data sizes:     COMRAM   BANK0   BANK1   BANK2   BANK3   BANK4   BANK5   BANK6   BANK7   BANK8   BANK9  BANK10  BANK1
      +1  BANK12  BANK13  BANK14
  4606 ;;      Params:         0       0       0       0       0       0       0       0       0       0       0       0       
      +0       0       0       0
  4607 ;;      Locals:         0       0       0       0       0       0       0       0       0       0       0       0       
      +0       0       0       0
  4608 ;;      Temps:          0       0       0       0       0       0       0       0       0       0       0       0       
      +0       0       0       0
  4609 ;;      Totals:         0       0       0       0       0       0       0       0       0       0       0       0       
      +0       0       0       0
  4610 ;;Total ram usage:        0 bytes
  4611 ;; Hardware stack levels used: 1
  4612 ;; This function calls:
  4613 ;;		Nothing
  4614 ;; This function is called by:
  4615 ;;		_EUSART1_Initialize
  4616 ;;		_INTERRUPT_InterruptManager
  4617 ;; This function uses a non-reentrant model
  4618 ;;
  4619                           
  4620                           	psect	text59
  4621   0015FC                     __ptext59:
  4622                           	callstack 0
  4623   0015FC                     _EUSART1_Transmit_ISR:
  4624                           	callstack 22
  4625   0015FC                     
  4626                           ;mcc_generated_files/eusart1.c: 210:     if(sizeof(eusart1TxBuffer) > eusart1TxBufferRem
      +                          aining)
  4627   0015FC  0E08               	movlw	8
  4628   0015FE  601C               	cpfslt	_eusart1TxBufferRemaining^0,c	;volatile
  4629   001600  EF04  F00B         	goto	i2u89_41
  4630   001604  EF06  F00B         	goto	i2u89_40
  4631   001608                     i2u89_41:
  4632   001608  EF1A  F00B         	goto	i2l548
  4633   00160C                     i2u89_40:
  4634   00160C                     
  4635                           ;mcc_generated_files/eusart1.c: 211:     {;mcc_generated_files/eusart1.c: 212:         T
      +                          XREG1 = eusart1TxBuffer[eusart1TxTail++];
  4636   00160C  501D               	movf	_eusart1TxTail^0,w,c
  4637   00160E  0FD2               	addlw	low _eusart1TxBuffer
  4638   001610  6ED9               	movwf	fsr2l,c
  4639   001612  6ADA               	clrf	fsr2h,c
  4640   001614  50DF               	movf	indf2,w,c
  4641   001616  6EAD               	movwf	173,c	;volatile
  4642   001618  2A1D               	incf	_eusart1TxTail^0,f,c	;volatile
  4643   00161A                     
  4644                           ;mcc_generated_files/eusart1.c: 213:         if(sizeof(eusart1TxBuffer) <= eusart1TxTail
      +                          )
  4645   00161A  0E07               	movlw	7
  4646   00161C  641D               	cpfsgt	_eusart1TxTail^0,c	;volatile
  4647   00161E  EF13  F00B         	goto	i2u90_41
  4648   001622  EF15  F00B         	goto	i2u90_40
  4649   001626                     i2u90_41:
  4650   001626  EF17  F00B         	goto	i2l2712
  4651   00162A                     i2u90_40:
  4652   00162A                     
  4653                           ;mcc_generated_files/eusart1.c: 214:         {;mcc_generated_files/eusart1.c: 215:      
      +                                 eusart1TxTail = 0;
  4654   00162A  0E00               	movlw	0
  4655   00162C  6E1D               	movwf	_eusart1TxTail^0,c	;volatile
  4656   00162E                     i2l2712:
  4657                           
  4658                           ;mcc_generated_files/eusart1.c: 217:         eusart1TxBufferRemaining++;
  4659   00162E  2A1C               	incf	_eusart1TxBufferRemaining^0,f,c	;volatile
  4660                           
  4661                           ;mcc_generated_files/eusart1.c: 218:     }
  4662   001630  EF1B  F00B         	goto	i2l551
  4663   001634                     i2l548:
  4664                           
  4665                           ;mcc_generated_files/eusart1.c: 220:     {;mcc_generated_files/eusart1.c: 221:         P
      +                          IE1bits.TX1IE = 0;
  4666   001634  989D               	bcf	157,4,c	;volatile
  4667   001636                     i2l551:
  4668   001636  0012               	return		;funcret
  4669   001638                     __end_of_EUSART1_Transmit_ISR:
  4670                           	callstack 0
  4671                           
  4672 ;; *************** function _EUSART1_Receive_ISR *****************
  4673 ;; Defined at:
  4674 ;;		line 225 in file "mcc_generated_files/eusart1.c"
  4675 ;; Parameters:    Size  Location     Type
  4676 ;;		None
  4677 ;; Auto vars:     Size  Location     Type
  4678 ;;		None
  4679 ;; Return value:  Size  Location     Type
  4680 ;;                  1    wreg      void 
  4681 ;; Registers used:
  4682 ;;		wreg, fsr2l, fsr2h, status,2, status,0, pcl, pclath, pclatu, tosl, cstack
  4683 ;; Tracked objects:
  4684 ;;		On entry : 0/0
  4685 ;;		On exit  : 0/0
  4686 ;;		Unchanged: 0/0
  4687 ;; Data sizes:     COMRAM   BANK0   BANK1   BANK2   BANK3   BANK4   BANK5   BANK6   BANK7   BANK8   BANK9  BANK10  BANK1
      +1  BANK12  BANK13  BANK14
  4688 ;;      Params:         0       0       0       0       0       0       0       0       0       0       0       0       
      +0       0       0       0
  4689 ;;      Locals:         0       0       0       0       0       0       0       0       0       0       0       0       
      +0       0       0       0
  4690 ;;      Temps:          0       0       0       0       0       0       0       0       0       0       0       0       
      +0       0       0       0
  4691 ;;      Totals:         0       0       0       0       0       0       0       0       0       0       0       0       
      +0       0       0       0
  4692 ;;Total ram usage:        0 bytes
  4693 ;; Hardware stack levels used: 1
  4694 ;; Hardware stack levels required when called: 2
  4695 ;; This function calls:
  4696 ;;		NULL
  4697 ;;		_EUSART1_DefaultErrorHandler
  4698 ;;		_EUSART1_DefaultFramingErrorHandler
  4699 ;;		_EUSART1_DefaultOverrunErrorHandler
  4700 ;;		_EUSART1_RxDataHandler
  4701 ;; This function is called by:
  4702 ;;		_EUSART1_Initialize
  4703 ;;		_INTERRUPT_InterruptManager
  4704 ;; This function uses a non-reentrant model
  4705 ;;
  4706                           
  4707                           	psect	text60
  4708   001166                     __ptext60:
  4709                           	callstack 0
  4710   001166                     _EUSART1_Receive_ISR:
  4711                           	callstack 20
  4712   001166                     
  4713                           ;mcc_generated_files/eusart1.c: 228:     eusart1RxStatusBuffer[eusart1RxHead].status = 0
      +                          ;
  4714   001166  501B               	movf	_eusart1RxHead^0,w,c
  4715   001168  0FC2               	addlw	low _eusart1RxStatusBuffer
  4716   00116A  6ED9               	movwf	fsr2l,c
  4717   00116C  6ADA               	clrf	fsr2h,c
  4718   00116E  6ADF               	clrf	indf2,c
  4719   001170                     
  4720                           ;mcc_generated_files/eusart1.c: 230:     if(RCSTA1bits.FERR){
  4721   001170  A4AB               	btfss	171,2,c	;volatile
  4722   001172  EFBD  F008         	goto	i2u91_41
  4723   001176  EFBF  F008         	goto	i2u91_40
  4724   00117A                     i2u91_41:
  4725   00117A  EFD2  F008         	goto	i2l2722
  4726   00117E                     i2u91_40:
  4727   00117E                     
  4728                           ;mcc_generated_files/eusart1.c: 231:         eusart1RxStatusBuffer[eusart1RxHead].ferr =
      +                           1;
  4729   00117E  501B               	movf	_eusart1RxHead^0,w,c
  4730   001180  0FC2               	addlw	low _eusart1RxStatusBuffer
  4731   001182  6ED9               	movwf	fsr2l,c
  4732   001184  6ADA               	clrf	fsr2h,c
  4733   001186  0100               	movlb	0	; () banked
  4734   001188  82DF               	bsf	indf2,1,c
  4735   00118A                     
  4736                           ; BSR set to: 0
  4737                           ;mcc_generated_files/eusart1.c: 232:         EUSART1_FramingErrorHandler();
  4738   00118A  D802               	call	i2u92_48
  4739   00118C  EFD2  F008         	goto	i2u92_49
  4740   001190                     i2u92_48:
  4741   001190  0005               	push	
  4742   001192  6EFA               	movwf	pclath,c
  4743   001194  51DE               	movf	_EUSART1_FramingErrorHandler& (0+255),w,b
  4744   001196  6EFD               	movwf	tosl,c
  4745   001198  51DF               	movf	(_EUSART1_FramingErrorHandler+1)& (0+255),w,b
  4746   00119A  6EFE               	movwf	tosh,c
  4747   00119C  50F8               	movf	tblptru,w,c
  4748   00119E  6EFF               	movwf	tosu,c
  4749   0011A0  50FA               	movf	pclath,w,c
  4750   0011A2  0012               	return		;indir
  4751   0011A4                     i2u92_49:
  4752   0011A4                     i2l2722:
  4753                           
  4754                           ;mcc_generated_files/eusart1.c: 235:     if(RCSTA1bits.OERR){
  4755   0011A4  A2AB               	btfss	171,1,c	;volatile
  4756   0011A6  EFD7  F008         	goto	i2u93_41
  4757   0011AA  EFD9  F008         	goto	i2u93_40
  4758   0011AE                     i2u93_41:
  4759   0011AE  EFEC  F008         	goto	i2l2728
  4760   0011B2                     i2u93_40:
  4761   0011B2                     
  4762                           ;mcc_generated_files/eusart1.c: 236:         eusart1RxStatusBuffer[eusart1RxHead].oerr =
      +                           1;
  4763   0011B2  501B               	movf	_eusart1RxHead^0,w,c
  4764   0011B4  0FC2               	addlw	low _eusart1RxStatusBuffer
  4765   0011B6  6ED9               	movwf	fsr2l,c
  4766   0011B8  6ADA               	clrf	fsr2h,c
  4767   0011BA  0100               	movlb	0	; () banked
  4768   0011BC  84DF               	bsf	indf2,2,c
  4769   0011BE                     
  4770                           ; BSR set to: 0
  4771                           ;mcc_generated_files/eusart1.c: 237:         EUSART1_OverrunErrorHandler();
  4772   0011BE  D802               	call	i2u94_48
  4773   0011C0  EFEC  F008         	goto	i2u94_49
  4774   0011C4                     i2u94_48:
  4775   0011C4  0005               	push	
  4776   0011C6  6EFA               	movwf	pclath,c
  4777   0011C8  51DC               	movf	_EUSART1_OverrunErrorHandler& (0+255),w,b
  4778   0011CA  6EFD               	movwf	tosl,c
  4779   0011CC  51DD               	movf	(_EUSART1_OverrunErrorHandler+1)& (0+255),w,b
  4780   0011CE  6EFE               	movwf	tosh,c
  4781   0011D0  50F8               	movf	tblptru,w,c
  4782   0011D2  6EFF               	movwf	tosu,c
  4783   0011D4  50FA               	movf	pclath,w,c
  4784   0011D6  0012               	return		;indir
  4785   0011D8                     i2u94_49:
  4786   0011D8                     i2l2728:
  4787                           
  4788                           ;mcc_generated_files/eusart1.c: 240:     if(eusart1RxStatusBuffer[eusart1RxHead].status)
      +                          {
  4789   0011D8  501B               	movf	_eusart1RxHead^0,w,c
  4790   0011DA  0FC2               	addlw	low _eusart1RxStatusBuffer
  4791   0011DC  6ED9               	movwf	fsr2l,c
  4792   0011DE  6ADA               	clrf	fsr2h,c
  4793   0011E0  50DF               	movf	indf2,w,c
  4794   0011E2  B4D8               	btfsc	status,2,c
  4795   0011E4  EFF6  F008         	goto	i2u95_41
  4796   0011E8  EFF8  F008         	goto	i2u95_40
  4797   0011EC                     i2u95_41:
  4798   0011EC  EF08  F009         	goto	i2l2732
  4799   0011F0                     i2u95_40:
  4800   0011F0                     
  4801                           ;mcc_generated_files/eusart1.c: 241:         EUSART1_ErrorHandler();
  4802   0011F0  D802               	call	i2u96_48
  4803   0011F2  EF06  F009         	goto	i2u96_49
  4804   0011F6                     i2u96_48:
  4805   0011F6  0005               	push	
  4806   0011F8  0100               	movlb	0	; () banked
  4807   0011FA  6EFA               	movwf	pclath,c
  4808   0011FC  51DA               	movf	_EUSART1_ErrorHandler& (0+255),w,b
  4809   0011FE  6EFD               	movwf	tosl,c
  4810   001200  51DB               	movf	(_EUSART1_ErrorHandler+1)& (0+255),w,b
  4811   001202  6EFE               	movwf	tosh,c
  4812   001204  50F8               	movf	tblptru,w,c
  4813   001206  6EFF               	movwf	tosu,c
  4814   001208  50FA               	movf	pclath,w,c
  4815   00120A  0012               	return		;indir
  4816   00120C                     i2u96_49:
  4817                           
  4818                           ;mcc_generated_files/eusart1.c: 242:     } else {
  4819   00120C  EF0A  F009         	goto	i2l558
  4820   001210                     i2l2732:
  4821                           
  4822                           ;mcc_generated_files/eusart1.c: 243:         EUSART1_RxDataHandler();
  4823   001210  ECB1  F00B         	call	_EUSART1_RxDataHandler	;wreg free
  4824   001214                     i2l558:
  4825   001214  0012               	return		;funcret
  4826   001216                     __end_of_EUSART1_Receive_ISR:
  4827                           	callstack 0
  4828                           
  4829 ;; *************** function _EUSART1_DefaultOverrunErrorHandler *****************
  4830 ;; Defined at:
  4831 ;;		line 261 in file "mcc_generated_files/eusart1.c"
  4832 ;; Parameters:    Size  Location     Type
  4833 ;;		None
  4834 ;; Auto vars:     Size  Location     Type
  4835 ;;		None
  4836 ;; Return value:  Size  Location     Type
  4837 ;;                  1    wreg      void 
  4838 ;; Registers used:
  4839 ;;		None
  4840 ;; Tracked objects:
  4841 ;;		On entry : 0/0
  4842 ;;		On exit  : 0/0
  4843 ;;		Unchanged: 0/0
  4844 ;; Data sizes:     COMRAM   BANK0   BANK1   BANK2   BANK3   BANK4   BANK5   BANK6   BANK7   BANK8   BANK9  BANK10  BANK1
      +1  BANK12  BANK13  BANK14
  4845 ;;      Params:         0       0       0       0       0       0       0       0       0       0       0       0       
      +0       0       0       0
  4846 ;;      Locals:         0       0       0       0       0       0       0       0       0       0       0       0       
      +0       0       0       0
  4847 ;;      Temps:          0       0       0       0       0       0       0       0       0       0       0       0       
      +0       0       0       0
  4848 ;;      Totals:         0       0       0       0       0       0       0       0       0       0       0       0       
      +0       0       0       0
  4849 ;;Total ram usage:        0 bytes
  4850 ;; Hardware stack levels used: 1
  4851 ;; This function calls:
  4852 ;;		Nothing
  4853 ;; This function is called by:
  4854 ;;		_EUSART1_Initialize
  4855 ;;		_EUSART1_Receive_ISR
  4856 ;; This function uses a non-reentrant model
  4857 ;;
  4858                           
  4859                           	psect	text61
  4860   001926                     __ptext61:
  4861                           	callstack 0
  4862   001926                     _EUSART1_DefaultOverrunErrorHandler:
  4863                           	callstack 21
  4864   001926                     
  4865                           ;mcc_generated_files/eusart1.c: 264:     RCSTA1bits.CREN = 0;
  4866   001926  98AB               	bcf	171,4,c	;volatile
  4867                           
  4868                           ;mcc_generated_files/eusart1.c: 265:     RCSTA1bits.CREN = 1;
  4869   001928  88AB               	bsf	171,4,c	;volatile
  4870   00192A  0012               	return		;funcret
  4871   00192C                     __end_of_EUSART1_DefaultOverrunErrorHandler:
  4872                           	callstack 0
  4873                           
  4874 ;; *************** function _EUSART1_DefaultFramingErrorHandler *****************
  4875 ;; Defined at:
  4876 ;;		line 259 in file "mcc_generated_files/eusart1.c"
  4877 ;; Parameters:    Size  Location     Type
  4878 ;;		None
  4879 ;; Auto vars:     Size  Location     Type
  4880 ;;		None
  4881 ;; Return value:  Size  Location     Type
  4882 ;;                  1    wreg      void 
  4883 ;; Registers used:
  4884 ;;		None
  4885 ;; Tracked objects:
  4886 ;;		On entry : 0/0
  4887 ;;		On exit  : 0/0
  4888 ;;		Unchanged: 0/0
  4889 ;; Data sizes:     COMRAM   BANK0   BANK1   BANK2   BANK3   BANK4   BANK5   BANK6   BANK7   BANK8   BANK9  BANK10  BANK1
      +1  BANK12  BANK13  BANK14
  4890 ;;      Params:         0       0       0       0       0       0       0       0       0       0       0       0       
      +0       0       0       0
  4891 ;;      Locals:         0       0       0       0       0       0       0       0       0       0       0       0       
      +0       0       0       0
  4892 ;;      Temps:          0       0       0       0       0       0       0       0       0       0       0       0       
      +0       0       0       0
  4893 ;;      Totals:         0       0       0       0       0       0       0       0       0       0       0       0       
      +0       0       0       0
  4894 ;;Total ram usage:        0 bytes
  4895 ;; Hardware stack levels used: 1
  4896 ;; This function calls:
  4897 ;;		Nothing
  4898 ;; This function is called by:
  4899 ;;		_EUSART1_Initialize
  4900 ;;		_EUSART1_Receive_ISR
  4901 ;; This function uses a non-reentrant model
  4902 ;;
  4903                           
  4904                           	psect	text62
  4905   001962                     __ptext62:
  4906                           	callstack 0
  4907   001962                     _EUSART1_DefaultFramingErrorHandler:
  4908                           	callstack 21
  4909   001962  0012               	return		;funcret
  4910   001964                     __end_of_EUSART1_DefaultFramingErrorHandler:
  4911                           	callstack 0
  4912                           
  4913 ;; *************** function _EUSART1_DefaultErrorHandler *****************
  4914 ;; Defined at:
  4915 ;;		line 269 in file "mcc_generated_files/eusart1.c"
  4916 ;; Parameters:    Size  Location     Type
  4917 ;;		None
  4918 ;; Auto vars:     Size  Location     Type
  4919 ;;		None
  4920 ;; Return value:  Size  Location     Type
  4921 ;;                  1    wreg      void 
  4922 ;; Registers used:
  4923 ;;		wreg, fsr2l, fsr2h, status,2, status,0, cstack
  4924 ;; Tracked objects:
  4925 ;;		On entry : 0/0
  4926 ;;		On exit  : 0/0
  4927 ;;		Unchanged: 0/0
  4928 ;; Data sizes:     COMRAM   BANK0   BANK1   BANK2   BANK3   BANK4   BANK5   BANK6   BANK7   BANK8   BANK9  BANK10  BANK1
      +1  BANK12  BANK13  BANK14
  4929 ;;      Params:         0       0       0       0       0       0       0       0       0       0       0       0       
      +0       0       0       0
  4930 ;;      Locals:         0       0       0       0       0       0       0       0       0       0       0       0       
      +0       0       0       0
  4931 ;;      Temps:          0       0       0       0       0       0       0       0       0       0       0       0       
      +0       0       0       0
  4932 ;;      Totals:         0       0       0       0       0       0       0       0       0       0       0       0       
      +0       0       0       0
  4933 ;;Total ram usage:        0 bytes
  4934 ;; Hardware stack levels used: 1
  4935 ;; Hardware stack levels required when called: 1
  4936 ;; This function calls:
  4937 ;;		_EUSART1_RxDataHandler
  4938 ;; This function is called by:
  4939 ;;		_EUSART1_Initialize
  4940 ;;		_EUSART1_Receive_ISR
  4941 ;; This function uses a non-reentrant model
  4942 ;;
  4943                           
  4944                           	psect	text63
  4945   00192C                     __ptext63:
  4946                           	callstack 0
  4947   00192C                     _EUSART1_DefaultErrorHandler:
  4948                           	callstack 20
  4949   00192C                     
  4950                           ;mcc_generated_files/eusart1.c: 270:     EUSART1_RxDataHandler();
  4951   00192C  ECB1  F00B         	call	_EUSART1_RxDataHandler	;wreg free
  4952   001930  0012               	return		;funcret
  4953   001932                     __end_of_EUSART1_DefaultErrorHandler:
  4954                           	callstack 0
  4955                           
  4956 ;; *************** function _EUSART1_RxDataHandler *****************
  4957 ;; Defined at:
  4958 ;;		line 249 in file "mcc_generated_files/eusart1.c"
  4959 ;; Parameters:    Size  Location     Type
  4960 ;;		None
  4961 ;; Auto vars:     Size  Location     Type
  4962 ;;		None
  4963 ;; Return value:  Size  Location     Type
  4964 ;;                  1    wreg      void 
  4965 ;; Registers used:
  4966 ;;		wreg, fsr2l, fsr2h, status,2, status,0
  4967 ;; Tracked objects:
  4968 ;;		On entry : 0/0
  4969 ;;		On exit  : 0/0
  4970 ;;		Unchanged: 0/0
  4971 ;; Data sizes:     COMRAM   BANK0   BANK1   BANK2   BANK3   BANK4   BANK5   BANK6   BANK7   BANK8   BANK9  BANK10  BANK1
      +1  BANK12  BANK13  BANK14
  4972 ;;      Params:         0       0       0       0       0       0       0       0       0       0       0       0       
      +0       0       0       0
  4973 ;;      Locals:         0       0       0       0       0       0       0       0       0       0       0       0       
      +0       0       0       0
  4974 ;;      Temps:          0       0       0       0       0       0       0       0       0       0       0       0       
      +0       0       0       0
  4975 ;;      Totals:         0       0       0       0       0       0       0       0       0       0       0       0       
      +0       0       0       0
  4976 ;;Total ram usage:        0 bytes
  4977 ;; Hardware stack levels used: 1
  4978 ;; This function calls:
  4979 ;;		Nothing
  4980 ;; This function is called by:
  4981 ;;		_EUSART1_Receive_ISR
  4982 ;;		_EUSART1_DefaultErrorHandler
  4983 ;; This function uses a non-reentrant model
  4984 ;;
  4985                           
  4986                           	psect	text64
  4987   001762                     __ptext64:
  4988                           	callstack 0
  4989   001762                     _EUSART1_RxDataHandler:
  4990                           	callstack 21
  4991   001762                     
  4992                           ;mcc_generated_files/eusart1.c: 251:     eusart1RxBuffer[eusart1RxHead++] = RCREG1;
  4993   001762  501B               	movf	_eusart1RxHead^0,w,c
  4994   001764  0FCA               	addlw	low _eusart1RxBuffer
  4995   001766  6ED9               	movwf	fsr2l,c
  4996   001768  6ADA               	clrf	fsr2h,c
  4997   00176A  CFAE FFDF          	movff	4014,indf2	;volatile
  4998   00176E  2A1B               	incf	_eusart1RxHead^0,f,c	;volatile
  4999   001770                     
  5000                           ;mcc_generated_files/eusart1.c: 252:     if(sizeof(eusart1RxBuffer) <= eusart1RxHead)
  5001   001770  0E07               	movlw	7
  5002   001772  641B               	cpfsgt	_eusart1RxHead^0,c	;volatile
  5003   001774  EFBE  F00B         	goto	i2u79_41
  5004   001778  EFC0  F00B         	goto	i2u79_40
  5005   00177C                     i2u79_41:
  5006   00177C  EFC2  F00B         	goto	i2l2548
  5007   001780                     i2u79_40:
  5008   001780                     
  5009                           ;mcc_generated_files/eusart1.c: 253:     {;mcc_generated_files/eusart1.c: 254:         e
      +                          usart1RxHead = 0;
  5010   001780  0E00               	movlw	0
  5011   001782  6E1B               	movwf	_eusart1RxHead^0,c	;volatile
  5012   001784                     i2l2548:
  5013                           
  5014                           ;mcc_generated_files/eusart1.c: 256:     eusart1RxCount++;
  5015   001784  2A19               	incf	_eusart1RxCount^0,f,c	;volatile
  5016   001786  0012               	return		;funcret
  5017   001788                     __end_of_EUSART1_RxDataHandler:
  5018                           	callstack 0
  5019                           
  5020                           	psect	text65
  5021   000000                     __ptext65:
  5022                           	callstack 0
  5023   000000                     
  5024                           	psect	rparam
  5025   000000                     
  5026                           	psect	temp
  5027   000021                     btemp:
  5028                           	callstack 0
  5029   000021                     	ds	1
  5030   000000                     int$flags	set	btemp
  5031   000000                     wtemp8	set	btemp+1
  5032   000000                     ttemp5	set	btemp+1
  5033   000000                     ttemp6	set	btemp+4
  5034   000000                     ttemp7	set	btemp+8
  5035                           
  5036                           	psect	config
  5037                           
  5038                           ;Config register CONFIG1L @ 0x300000
  5039                           ;	VREG Sleep Enable bit
  5040                           ;	RETEN = OFF, Ultra low-power regulator is Disabled (Controlled by REGSLP bit)
  5041                           ;	LF-INTOSC Low-power Enable bit
  5042                           ;	INTOSCSEL = HIGH, LF-INTOSC in High-power mode during Sleep
  5043                           ;	SOSC Power Selection and mode Configuration bits
  5044                           ;	SOSCSEL = DIG, Digital (SCLKI) mode
  5045                           ;	Extended Instruction Set
  5046                           ;	XINST = OFF, Disabled
  5047   300000                     	org	3145728
  5048   300000  15                 	db	21
  5049                           
  5050                           ;Config register CONFIG1H @ 0x300001
  5051                           ;	Oscillator
  5052                           ;	FOSC = HS2, HS oscillator (High power, 16 MHz - 25 MHz)
  5053                           ;	PLL x4 Enable bit
  5054                           ;	PLLCFG = OFF, Disabled
  5055                           ;	Fail-Safe Clock Monitor
  5056                           ;	FCMEN = OFF, Disabled
  5057                           ;	Internal External Oscillator Switch Over Mode
  5058                           ;	IESO = OFF, Disabled
  5059   300001                     	org	3145729
  5060   300001  02                 	db	2
  5061                           
  5062                           ;Config register CONFIG2L @ 0x300002
  5063                           ;	Power Up Timer
  5064                           ;	PWRTEN = OFF, Disabled
  5065                           ;	Brown Out Detect
  5066                           ;	BOREN = SBORDIS, Enabled in hardware, SBOREN disabled
  5067                           ;	Brown-out Reset Voltage bits
  5068                           ;	BORV = 3, 1.8V
  5069                           ;	BORMV Power level
  5070                           ;	BORPWR = ZPBORMV, ZPBORMV instead of BORMV is selected
  5071   300002                     	org	3145730
  5072   300002  7F                 	db	127
  5073                           
  5074                           ;Config register CONFIG2H @ 0x300003
  5075                           ;	Watchdog Timer
  5076                           ;	WDTEN = OFF, WDT disabled in hardware; SWDTEN bit disabled
  5077                           ;	Watchdog Postscaler
  5078                           ;	WDTPS = 1048576, 1:1048576
  5079   300003                     	org	3145731
  5080   300003  50                 	db	80
  5081                           
  5082                           ; Padding undefined space
  5083   300004                     	org	3145732
  5084   300004  FF                 	db	255
  5085                           
  5086                           ;Config register CONFIG3H @ 0x300005
  5087                           ;	ECAN Mux bit
  5088                           ;	CANMX = PORTB, ECAN TX and RX pins are located on RB2 and RB3, respectively
  5089                           ;	MSSP address masking
  5090                           ;	MSSPMSK = MSK7, 7 Bit address masking mode
  5091                           ;	Master Clear Enable
  5092                           ;	MCLRE = ON, MCLR Enabled, RE3 Disabled
  5093   300005                     	org	3145733
  5094   300005  89                 	db	137
  5095                           
  5096                           ;Config register CONFIG4L @ 0x300006
  5097                           ;	Stack Overflow Reset
  5098                           ;	STVREN = ON, Enabled
  5099                           ;	Boot Block Size
  5100                           ;	BBSIZ = BB2K, 2K word Boot Block size
  5101                           ;	Background Debugger
  5102                           ;	DEBUG = 0x1, unprogrammed default
  5103   300006                     	org	3145734
  5104   300006  91                 	db	145
  5105                           
  5106                           ; Padding undefined space
  5107   300007                     	org	3145735
  5108   300007  FF                 	db	255
  5109                           
  5110                           ;Config register CONFIG5L @ 0x300008
  5111                           ;	Code Protect 00800-01FFF
  5112                           ;	CP0 = OFF, Disabled
  5113                           ;	Code Protect 02000-03FFF
  5114                           ;	CP1 = OFF, Disabled
  5115                           ;	Code Protect 04000-05FFF
  5116                           ;	CP2 = OFF, Disabled
  5117                           ;	Code Protect 06000-07FFF
  5118                           ;	CP3 = OFF, Disabled
  5119   300008                     	org	3145736
  5120   300008  0F                 	db	15
  5121                           
  5122                           ;Config register CONFIG5H @ 0x300009
  5123                           ;	Code Protect Boot
  5124                           ;	CPB = OFF, Disabled
  5125                           ;	Data EE Read Protect
  5126                           ;	CPD = OFF, Disabled
  5127   300009                     	org	3145737
  5128   300009  C0                 	db	192
  5129                           
  5130                           ;Config register CONFIG6L @ 0x30000A
  5131                           ;	Table Write Protect 00800-01FFF
  5132                           ;	WRT0 = OFF, Disabled
  5133                           ;	Table Write Protect 02000-03FFF
  5134                           ;	WRT1 = OFF, Disabled
  5135                           ;	Table Write Protect 04000-05FFF
  5136                           ;	WRT2 = OFF, Disabled
  5137                           ;	Table Write Protect 06000-07FFF
  5138                           ;	WRT3 = OFF, Disabled
  5139   30000A                     	org	3145738
  5140   30000A  0F                 	db	15
  5141                           
  5142                           ;Config register CONFIG6H @ 0x30000B
  5143                           ;	Config. Write Protect
  5144                           ;	WRTC = OFF, Disabled
  5145                           ;	Table Write Protect Boot
  5146                           ;	WRTB = OFF, Disabled
  5147                           ;	Data EE Write Protect
  5148                           ;	WRTD = OFF, Disabled
  5149   30000B                     	org	3145739
  5150   30000B  E0                 	db	224
  5151                           
  5152                           ;Config register CONFIG7L @ 0x30000C
  5153                           ;	Table Read Protect 00800-01FFF
  5154                           ;	EBTR0 = OFF, Disabled
  5155                           ;	Table Read Protect 02000-03FFF
  5156                           ;	EBTR1 = OFF, Disabled
  5157                           ;	Table Read Protect 04000-05FFF
  5158                           ;	EBTR2 = OFF, Disabled
  5159                           ;	Table Read Protect 06000-07FFF
  5160                           ;	EBTR3 = OFF, Disabled
  5161   30000C                     	org	3145740
  5162   30000C  0F                 	db	15
  5163                           
  5164                           ;Config register CONFIG7H @ 0x30000D
  5165                           ;	Table Read Protect Boot
  5166                           ;	EBTRB = OFF, Disabled
  5167   30000D                     	org	3145741
  5168   30000D  40                 	db	64
  5169                           tosu	equ	0xFFF
  5170                           tosh	equ	0xFFE
  5171                           tosl	equ	0xFFD
  5172                           stkptr	equ	0xFFC
  5173                           pclatu	equ	0xFFB
  5174                           pclath	equ	0xFFA
  5175                           pcl	equ	0xFF9
  5176                           tblptru	equ	0xFF8
  5177                           tblptrh	equ	0xFF7
  5178                           tblptrl	equ	0xFF6
  5179                           tablat	equ	0xFF5
  5180                           prodh	equ	0xFF4
  5181                           prodl	equ	0xFF3
  5182                           indf0	equ	0xFEF
  5183                           postinc0	equ	0xFEE
  5184                           postdec0	equ	0xFED
  5185                           preinc0	equ	0xFEC
  5186                           plusw0	equ	0xFEB
  5187                           fsr0h	equ	0xFEA
  5188                           fsr0l	equ	0xFE9
  5189                           wreg	equ	0xFE8
  5190                           indf1	equ	0xFE7
  5191                           postinc1	equ	0xFE6
  5192                           postdec1	equ	0xFE5
  5193                           preinc1	equ	0xFE4
  5194                           plusw1	equ	0xFE3
  5195                           fsr1h	equ	0xFE2
  5196                           fsr1l	equ	0xFE1
  5197                           bsr	equ	0xFE0
  5198                           indf2	equ	0xFDF
  5199                           postinc2	equ	0xFDE
  5200                           postdec2	equ	0xFDD
  5201                           preinc2	equ	0xFDC
  5202                           plusw2	equ	0xFDB
  5203                           fsr2h	equ	0xFDA
  5204                           fsr2l	equ	0xFD9
  5205                           status	equ	0xFD8

Data Sizes:
    Strings     0
    Constant    32
    Data        0
    BSS         67
    Persistent  10
    Stack       0

Auto Spaces:
    Space          Size  Autos    Used
    COMRAM           94     23      32
    BANK0           160     62     130
    BANK1           256      0       0
    BANK2           256      0       0
    BANK3           256      0       0
    BANK4           256      0       0
    BANK5           256      0       0
    BANK6           256      0       0
    BANK7           256      0       0
    BANK8           256      0       0
    BANK9           256      0       0
    BANK10          256      0       0
    BANK11          256      0       0
    BANK12          256      0       0
    BANK13          256      0       0
    BANK14           65      0       0

Pointer List with Targets:

    bufferBlock$data	PTR unsigned char  size(2) Largest target is 0

    cb$0	PTR void  size(2) Largest target is 5
		 -> I2C_Read1ByteRegister@returnValue(COMRAM[1]), I2C_Read2ByteRegister@returnValue(COMRAM[2]), I2C_ReadDataBlock@bufferBlock(COMRAM[4]), I2C_Write1ByteRegister@data(COMRAM[1]), 
		 -> I2C_Write2ByteRegister@data(COMRAM[2]), NULL(NULL[0]), 

    cb$0	PTR void  size(2) Largest target is 5
		 -> I2C_Read1ByteRegister@returnValue(COMRAM[1]), I2C_Read2ByteRegister@returnValue(COMRAM[2]), I2C_ReadDataBlock@bufferBlock(COMRAM[4]), I2C_Write1ByteRegister@data(COMRAM[1]), 
		 -> I2C_Write2ByteRegister@data(COMRAM[2]), NULL(NULL[0]), 

    EUSART1_ErrorHandler	PTR FTN()void  size(2) Largest target is 1
		 -> EUSART1_DefaultErrorHandler(), NULL(), 

    EUSART1_FramingErrorHandler	PTR FTN()void  size(2) Largest target is 1
		 -> EUSART1_DefaultFramingErrorHandler(), NULL(), 

    EUSART1_OverrunErrorHandler	PTR FTN()void  size(2) Largest target is 1
		 -> EUSART1_DefaultOverrunErrorHandler(), NULL(), 

    EUSART1_RxDefaultInterruptHandler	PTR FTN()void  size(2) Largest target is 1
		 -> EUSART1_Receive_ISR(), NULL(), 

    EUSART1_SetErrorHandler@interruptHandler	PTR FTN()void  size(2) Largest target is 1
		 -> EUSART1_DefaultErrorHandler(), 

    EUSART1_SetFramingErrorHandler@interruptHandler	PTR FTN()void  size(2) Largest target is 1
		 -> EUSART1_DefaultFramingErrorHandler(), 

    EUSART1_SetOverrunErrorHandler@interruptHandler	PTR FTN()void  size(2) Largest target is 1
		 -> EUSART1_DefaultOverrunErrorHandler(), 

    EUSART1_SetRxInterruptHandler@interruptHandler	PTR FTN()void  size(2) Largest target is 1
		 -> EUSART1_Receive_ISR(), 

    EUSART1_SetTxInterruptHandler@interruptHandler	PTR FTN()void  size(2) Largest target is 1
		 -> EUSART1_Transmit_ISR(), 

    EUSART1_TxDefaultInterruptHandler	PTR FTN()void  size(2) Largest target is 1
		 -> EUSART1_Transmit_ISR(), NULL(), 

    I2C_CallbackReturnReset@funPtr	PTR void  size(2) Largest target is 5
		 -> I2C_Read1ByteRegister@returnValue(COMRAM[1]), I2C_Read2ByteRegister@returnValue(COMRAM[2]), I2C_ReadDataBlock@bufferBlock(COMRAM[4]), I2C_Write1ByteRegister@data(COMRAM[1]), 
		 -> I2C_Write2ByteRegister@data(COMRAM[2]), NULL(NULL[0]), 

    I2C_CallbackReturnStop@funPtr	PTR void  size(2) Largest target is 5
		 -> I2C_Read1ByteRegister@returnValue(COMRAM[1]), I2C_Read2ByteRegister@returnValue(COMRAM[2]), I2C_ReadDataBlock@bufferBlock(COMRAM[4]), I2C_Write1ByteRegister@data(COMRAM[1]), 
		 -> I2C_Write2ByteRegister@data(COMRAM[2]), NULL(NULL[0]), 

    I2C_DO_RX$2219	PTR FTN(PTR void ,)enum E363 size(2) Largest target is 1
		 -> I2C_CallbackReturnReset(), I2C_CallbackReturnStop(), rd1RegCompleteHandler(), rd2RegCompleteHandler(), 
		 -> rdBlkRegCompleteHandler(), wr1RegCompleteHandler(), wr2RegCompleteHandler(), NULL(), 

    I2C_DO_RX$2219$0	PTR void  size(2) Largest target is 5
		 -> I2C_Read1ByteRegister@returnValue(COMRAM[1]), I2C_Read2ByteRegister@returnValue(COMRAM[2]), I2C_ReadDataBlock@bufferBlock(COMRAM[4]), I2C_Write1ByteRegister@data(COMRAM[1]), 
		 -> I2C_Write2ByteRegister@data(COMRAM[2]), NULL(NULL[0]), 

    I2C_DO_RX$2224	PTR void  size(2) Largest target is 5
		 -> I2C_Read1ByteRegister@returnValue(COMRAM[1]), I2C_Read2ByteRegister@returnValue(COMRAM[2]), I2C_ReadDataBlock@bufferBlock(COMRAM[4]), I2C_Write1ByteRegister@data(COMRAM[1]), 
		 -> I2C_Write2ByteRegister@data(COMRAM[2]), NULL(NULL[0]), 

    I2C_DO_RX_EMPTY$2231$0	PTR void  size(2) Largest target is 5
		 -> I2C_Read1ByteRegister@returnValue(COMRAM[1]), I2C_Read2ByteRegister@returnValue(COMRAM[2]), I2C_ReadDataBlock@bufferBlock(COMRAM[4]), I2C_Write1ByteRegister@data(COMRAM[1]), 
		 -> I2C_Write2ByteRegister@data(COMRAM[2]), NULL(NULL[0]), 

    I2C_DO_TX$2213	PTR FTN(PTR void ,)enum E363 size(2) Largest target is 1
		 -> I2C_CallbackReturnReset(), I2C_CallbackReturnStop(), rd1RegCompleteHandler(), rd2RegCompleteHandler(), 
		 -> rdBlkRegCompleteHandler(), wr1RegCompleteHandler(), wr2RegCompleteHandler(), NULL(), 

    I2C_DO_TX$2213$0	PTR void  size(2) Largest target is 5
		 -> I2C_Read1ByteRegister@returnValue(COMRAM[1]), I2C_Read2ByteRegister@returnValue(COMRAM[2]), I2C_ReadDataBlock@bufferBlock(COMRAM[4]), I2C_Write1ByteRegister@data(COMRAM[1]), 
		 -> I2C_Write2ByteRegister@data(COMRAM[2]), NULL(NULL[0]), 

    I2C_DO_TX$2218	PTR void  size(2) Largest target is 5
		 -> I2C_Read1ByteRegister@returnValue(COMRAM[1]), I2C_Read2ByteRegister@returnValue(COMRAM[2]), I2C_ReadDataBlock@bufferBlock(COMRAM[4]), I2C_Write1ByteRegister@data(COMRAM[1]), 
		 -> I2C_Write2ByteRegister@data(COMRAM[2]), NULL(NULL[0]), 

    I2C_DO_TX_EMPTY$2225	PTR FTN(PTR void ,)enum E363 size(2) Largest target is 1
		 -> I2C_CallbackReturnReset(), I2C_CallbackReturnStop(), rd1RegCompleteHandler(), rd2RegCompleteHandler(), 
		 -> rdBlkRegCompleteHandler(), wr1RegCompleteHandler(), wr2RegCompleteHandler(), NULL(), 

    I2C_DO_TX_EMPTY$2225$0	PTR void  size(2) Largest target is 5
		 -> I2C_Read1ByteRegister@returnValue(COMRAM[1]), I2C_Read2ByteRegister@returnValue(COMRAM[2]), I2C_ReadDataBlock@bufferBlock(COMRAM[4]), I2C_Write1ByteRegister@data(COMRAM[1]), 
		 -> I2C_Write2ByteRegister@data(COMRAM[2]), NULL(NULL[0]), 

    I2C_DO_TX_EMPTY$2230	PTR void  size(2) Largest target is 5
		 -> I2C_Read1ByteRegister@returnValue(COMRAM[1]), I2C_Read2ByteRegister@returnValue(COMRAM[2]), I2C_ReadDataBlock@bufferBlock(COMRAM[4]), I2C_Write1ByteRegister@data(COMRAM[1]), 
		 -> I2C_Write2ByteRegister@data(COMRAM[2]), NULL(NULL[0]), 

    i2c_fsmStateTable	const PTR FTN()enum E12602[16] size(2) Largest target is 1
		 -> I2C_DO_ADDRESS_NACK(), I2C_DO_IDLE(), I2C_DO_RCEN(), I2C_DO_RESET(), 
		 -> I2C_DO_RX(), I2C_DO_RX_ACK(), I2C_DO_RX_NACK_RESTART(), I2C_DO_RX_NACK_STOP(), 
		 -> I2C_DO_SEND_ADR_READ(), I2C_DO_SEND_ADR_WRITE(), I2C_DO_SEND_RESTART(), I2C_DO_SEND_RESTART_READ(), 
		 -> I2C_DO_SEND_RESTART_WRITE(), I2C_DO_SEND_STOP(), I2C_DO_TX(), I2C_DO_TX_EMPTY(), 

    I2C_MasterFsm$2212	const PTR FTN()enum E12602 size(2) Largest target is 1
		 -> I2C_DO_ADDRESS_NACK(), I2C_DO_IDLE(), I2C_DO_RCEN(), I2C_DO_RESET(), 
		 -> I2C_DO_RX(), I2C_DO_RX_ACK(), I2C_DO_RX_NACK_RESTART(), I2C_DO_RX_NACK_STOP(), 
		 -> I2C_DO_SEND_ADR_READ(), I2C_DO_SEND_ADR_WRITE(), I2C_DO_SEND_RESTART(), I2C_DO_SEND_RESTART_READ(), 
		 -> I2C_DO_SEND_RESTART_WRITE(), I2C_DO_SEND_STOP(), I2C_DO_TX(), I2C_DO_TX_EMPTY(), 

    I2C_Read1ByteRegister@returnValue$data	PTR unsigned char  size(2) Largest target is 0

    I2C_Read2ByteRegister@returnValue$data	PTR unsigned char  size(2) Largest target is 0

    I2C_SetBuffer@buffer	PTR void  size(2) Largest target is 20
		 -> bufferBlock$data(COMRAM[3]), I2C_Read1ByteRegister@reg(COMRAM[1]), I2C_Read1ByteRegister@returnValue(COMRAM[1]), I2C_Read1ByteRegister@returnValue$data(COMRAM[3]), 
		 -> I2C_Read2ByteRegister@reg(COMRAM[1]), I2C_Read2ByteRegister@returnValue(COMRAM[2]), I2C_Read2ByteRegister@returnValue$data(COMRAM[3]), I2C_ReadDataBlock@bufferBlock(COMRAM[4]), 
		 -> I2C_ReadDataBlock@reg(COMRAM[1]), I2C_Write1ByteRegister@data(COMRAM[1]), I2C_Write1ByteRegister@data$data(COMRAM[3]), I2C_Write1ByteRegister@reg(COMRAM[1]), 
		 -> I2C_Write2ByteRegister@data(COMRAM[2]), I2C_Write2ByteRegister@data$data(COMRAM[3]), I2C_Write2ByteRegister@reg(COMRAM[1]), main@addr(BANK0[20]), 
		 -> main@Addr2(BANK0[20]), NULL(NULL[0]), 

    I2C_SetCallback@cb	PTR FTN(PTR void ,)enum E363 size(2) Largest target is 1
		 -> rd1RegCompleteHandler(), rd2RegCompleteHandler(), rdBlkRegCompleteHandler(), wr1RegCompleteHandler(), 
		 -> wr2RegCompleteHandler(), NULL(), 

    I2C_SetCallback@ptr	PTR void  size(2) Largest target is 5
		 -> I2C_Read1ByteRegister@returnValue(COMRAM[1]), I2C_Read2ByteRegister@returnValue(COMRAM[2]), I2C_ReadDataBlock@bufferBlock(COMRAM[4]), I2C_Write1ByteRegister@data(COMRAM[1]), 
		 -> I2C_Write2ByteRegister@data(COMRAM[2]), NULL(NULL[0]), 

    I2C_SetDataCompleteCallback@cb	PTR FTN(PTR void ,)enum E363 size(2) Largest target is 1
		 -> rd1RegCompleteHandler(), rd2RegCompleteHandler(), rdBlkRegCompleteHandler(), wr1RegCompleteHandler(), 
		 -> wr2RegCompleteHandler(), NULL(), 

    I2C_SetDataCompleteCallback@ptr	PTR void  size(2) Largest target is 5
		 -> I2C_Read1ByteRegister@returnValue(COMRAM[1]), I2C_Read2ByteRegister@returnValue(COMRAM[2]), I2C_ReadDataBlock@bufferBlock(COMRAM[4]), I2C_Write1ByteRegister@data(COMRAM[1]), 
		 -> I2C_Write2ByteRegister@data(COMRAM[2]), NULL(NULL[0]), 

    I2C_Status$callbackPayload	PTR void [6] size(2) Largest target is 5
		 -> I2C_Read1ByteRegister@returnValue(COMRAM[1]), I2C_Read2ByteRegister@returnValue(COMRAM[2]), I2C_ReadDataBlock@bufferBlock(COMRAM[4]), I2C_Write1ByteRegister@data(COMRAM[1]), 
		 -> I2C_Write2ByteRegister@data(COMRAM[2]), NULL(NULL[0]), 

    I2C_Status$callbackTable	PTR FTN(PTR void ,)enum E363[6] size(2) Largest target is 1
		 -> I2C_CallbackReturnReset(), I2C_CallbackReturnStop(), rd1RegCompleteHandler(), rd2RegCompleteHandler(), 
		 -> rdBlkRegCompleteHandler(), wr1RegCompleteHandler(), wr2RegCompleteHandler(), NULL(), 

    I2C_Status$data_ptr	PTR unsigned char  size(2) Largest target is 20
		 -> bufferBlock$data(COMRAM[3]), I2C_Read1ByteRegister@reg(COMRAM[1]), I2C_Read1ByteRegister@returnValue(COMRAM[1]), I2C_Read1ByteRegister@returnValue$data(COMRAM[3]), 
		 -> I2C_Read2ByteRegister@reg(COMRAM[1]), I2C_Read2ByteRegister@returnValue(COMRAM[2]), I2C_Read2ByteRegister@returnValue$data(COMRAM[3]), I2C_ReadDataBlock@bufferBlock(COMRAM[4]), 
		 -> I2C_ReadDataBlock@reg(COMRAM[1]), I2C_Write1ByteRegister@data(COMRAM[1]), I2C_Write1ByteRegister@data$data(COMRAM[3]), I2C_Write1ByteRegister@reg(COMRAM[1]), 
		 -> I2C_Write2ByteRegister@data(COMRAM[2]), I2C_Write2ByteRegister@data$data(COMRAM[3]), I2C_Write2ByteRegister@reg(COMRAM[1]), main@addr(BANK0[20]), 
		 -> main@Addr2(BANK0[20]), NULL(NULL[0]), 

    I2C_Write1ByteRegister@data$data	PTR unsigned char  size(2) Largest target is 0

    I2C_Write2ByteRegister@data$data	PTR unsigned char  size(2) Largest target is 0

    NULL$0	PTR void  size(2) Largest target is 5
		 -> I2C_Read1ByteRegister@returnValue(COMRAM[1]), I2C_Read2ByteRegister@returnValue(COMRAM[2]), I2C_ReadDataBlock@bufferBlock(COMRAM[4]), I2C_Write1ByteRegister@data(COMRAM[1]), 
		 -> I2C_Write2ByteRegister@data(COMRAM[2]), NULL(NULL[0]), 

    rd1RegCompleteHandler@ptr	PTR void  size(2) Largest target is 5
		 -> I2C_Read1ByteRegister@returnValue(COMRAM[1]), I2C_Read2ByteRegister@returnValue(COMRAM[2]), I2C_ReadDataBlock@bufferBlock(COMRAM[4]), I2C_Write1ByteRegister@data(COMRAM[1]), 
		 -> I2C_Write2ByteRegister@data(COMRAM[2]), NULL(NULL[0]), 

    rd2RegCompleteHandler@ptr	PTR void  size(2) Largest target is 5
		 -> I2C_Read1ByteRegister@returnValue(COMRAM[1]), I2C_Read2ByteRegister@returnValue(COMRAM[2]), I2C_ReadDataBlock@bufferBlock(COMRAM[4]), I2C_Write1ByteRegister@data(COMRAM[1]), 
		 -> I2C_Write2ByteRegister@data(COMRAM[2]), NULL(NULL[0]), 

    rdBlkRegCompleteHandler@ptr	PTR void  size(2) Largest target is 5
		 -> I2C_Read1ByteRegister@returnValue(COMRAM[1]), I2C_Read2ByteRegister@returnValue(COMRAM[2]), I2C_ReadDataBlock@bufferBlock(COMRAM[4]), I2C_Write1ByteRegister@data(COMRAM[1]), 
		 -> I2C_Write2ByteRegister@data(COMRAM[2]), NULL(NULL[0]), 

    rdBlkRegCompleteHandler@ptr$data	PTR unsigned char  size(2) Largest target is 0

    S248$0$0	PTR void  size(2) Largest target is 5
		 -> I2C_Read1ByteRegister@returnValue(COMRAM[1]), I2C_Read2ByteRegister@returnValue(COMRAM[2]), I2C_ReadDataBlock@bufferBlock(COMRAM[4]), I2C_Write1ByteRegister@data(COMRAM[1]), 
		 -> I2C_Write2ByteRegister@data(COMRAM[2]), NULL(NULL[0]), 

    S248$callbackPayload	PTR void [6] size(2) Largest target is 5
		 -> I2C_Read1ByteRegister@returnValue(COMRAM[1]), I2C_Read2ByteRegister@returnValue(COMRAM[2]), I2C_ReadDataBlock@bufferBlock(COMRAM[4]), I2C_Write1ByteRegister@data(COMRAM[1]), 
		 -> I2C_Write2ByteRegister@data(COMRAM[2]), NULL(NULL[0]), 

    S248$callbackTable	PTR FTN(PTR void ,)enum E363[6] size(2) Largest target is 1
		 -> I2C_CallbackReturnReset(), I2C_CallbackReturnStop(), rd1RegCompleteHandler(), rd2RegCompleteHandler(), 
		 -> rdBlkRegCompleteHandler(), wr1RegCompleteHandler(), wr2RegCompleteHandler(), NULL(), 

    S248$data_ptr	PTR unsigned char  size(2) Largest target is 20
		 -> I2C_Read1ByteRegister@reg(COMRAM[1]), I2C_Read1ByteRegister@returnValue(COMRAM[1]), I2C_Read2ByteRegister@reg(COMRAM[1]), I2C_Read2ByteRegister@returnValue(COMRAM[2]), 
		 -> I2C_ReadDataBlock@bufferBlock(COMRAM[4]), I2C_ReadDataBlock@reg(COMRAM[1]), I2C_Write1ByteRegister@data(COMRAM[1]), I2C_Write1ByteRegister@reg(COMRAM[1]), 
		 -> I2C_Write2ByteRegister@data(COMRAM[2]), I2C_Write2ByteRegister@reg(COMRAM[1]), main@addr(BANK0[20]), main@Addr2(BANK0[20]), 
		 -> NULL(NULL[0]), 

    S96$data	PTR unsigned char  size(2) Largest target is 0

    wr1RegCompleteHandler@ptr	PTR void  size(2) Largest target is 5
		 -> I2C_Read1ByteRegister@returnValue(COMRAM[1]), I2C_Read2ByteRegister@returnValue(COMRAM[2]), I2C_ReadDataBlock@bufferBlock(COMRAM[4]), I2C_Write1ByteRegister@data(COMRAM[1]), 
		 -> I2C_Write2ByteRegister@data(COMRAM[2]), NULL(NULL[0]), 

    wr2RegCompleteHandler@ptr	PTR void  size(2) Largest target is 5
		 -> I2C_Read1ByteRegister@returnValue(COMRAM[1]), I2C_Read2ByteRegister@returnValue(COMRAM[2]), I2C_ReadDataBlock@bufferBlock(COMRAM[4]), I2C_Write1ByteRegister@data(COMRAM[1]), 
		 -> I2C_Write2ByteRegister@data(COMRAM[2]), NULL(NULL[0]), 


Critical Paths under _main in COMRAM

    _main->_I2C_MasterOperation
    _EUSART1_Initialize->_EUSART1_SetErrorHandler
    _EUSART1_Initialize->_EUSART1_SetFramingErrorHandler
    _EUSART1_Initialize->_EUSART1_SetOverrunErrorHandler
    _EUSART1_Initialize->_EUSART1_SetRxInterruptHandler
    _EUSART1_Initialize->_EUSART1_SetTxInterruptHandler
    _I2C_Poller->_I2C_MasterFsm
    _I2C_MasterFsm->_I2C_DO_ADDRESS_NACK
    _I2C_MasterFsm->_I2C_DO_RX
    _I2C_MasterFsm->_I2C_DO_TX
    _I2C_MasterFsm->_I2C_DO_TX_EMPTY
    _I2C_DO_TX_EMPTY->_rdBlkRegCompleteHandler
    _I2C_DO_TX->_rdBlkRegCompleteHandler
    _I2C_DO_SEND_ADR_WRITE->_I2C_MasterSendTxData
    _I2C_DO_RX->_rdBlkRegCompleteHandler
    _I2C_DO_ADDRESS_NACK->_rdBlkRegCompleteHandler
    _wr2RegCompleteHandler->_I2C_SetDataCompleteCallback
    _wr1RegCompleteHandler->_I2C_SetDataCompleteCallback
    _rdBlkRegCompleteHandler->_I2C_SetDataCompleteCallback
    _rd2RegCompleteHandler->_I2C_SetDataCompleteCallback
    _rd1RegCompleteHandler->_I2C_SetDataCompleteCallback
    _I2C_SetDataCompleteCallback->_I2C_SetCallback

Critical Paths under _INTERRUPT_InterruptManager in COMRAM

    None.

Critical Paths under _main in BANK0

    None.

Critical Paths under _INTERRUPT_InterruptManager in BANK0

    None.

Critical Paths under _main in BANK1

    None.

Critical Paths under _INTERRUPT_InterruptManager in BANK1

    None.

Critical Paths under _main in BANK2

    None.

Critical Paths under _INTERRUPT_InterruptManager in BANK2

    None.

Critical Paths under _main in BANK3

    None.

Critical Paths under _INTERRUPT_InterruptManager in BANK3

    None.

Critical Paths under _main in BANK4

    None.

Critical Paths under _INTERRUPT_InterruptManager in BANK4

    None.

Critical Paths under _main in BANK5

    None.

Critical Paths under _INTERRUPT_InterruptManager in BANK5

    None.

Critical Paths under _main in BANK6

    None.

Critical Paths under _INTERRUPT_InterruptManager in BANK6

    None.

Critical Paths under _main in BANK7

    None.

Critical Paths under _INTERRUPT_InterruptManager in BANK7

    None.

Critical Paths under _main in BANK8

    None.

Critical Paths under _INTERRUPT_InterruptManager in BANK8

    None.

Critical Paths under _main in BANK9

    None.

Critical Paths under _INTERRUPT_InterruptManager in BANK9

    None.

Critical Paths under _main in BANK10

    None.

Critical Paths under _INTERRUPT_InterruptManager in BANK10

    None.

Critical Paths under _main in BANK11

    None.

Critical Paths under _INTERRUPT_InterruptManager in BANK11

    None.

Critical Paths under _main in BANK12

    None.

Critical Paths under _INTERRUPT_InterruptManager in BANK12

    None.

Critical Paths under _main in BANK13

    None.

Critical Paths under _INTERRUPT_InterruptManager in BANK13

    None.

Critical Paths under _main in BANK14

    None.

Critical Paths under _INTERRUPT_InterruptManager in BANK14

    None.

Call Graph Tables:

 ---------------------------------------------------------------------------------
 (Depth) Function   	        Calls       Base Space   Used Autos Params    Refs
 ---------------------------------------------------------------------------------
 (0) _main                                                64    64      0  124737
                                             21 COMRAM     2     2      0
                                              0 BANK0     62    62      0
                          _I2C_Close
                _I2C_MasterOperation
                           _I2C_Open
                      _I2C_SetBuffer
                  _SYSTEM_Initialize
 ---------------------------------------------------------------------------------
 (1) _SYSTEM_Initialize                                    0     0      0     605
                 _EUSART1_Initialize
                     _I2C_Initialize
               _INTERRUPT_Initialize
              _OSCILLATOR_Initialize
             _PIN_MANAGER_Initialize
 ---------------------------------------------------------------------------------
 (2) _PIN_MANAGER_Initialize                               0     0      0       0
 ---------------------------------------------------------------------------------
 (2) _OSCILLATOR_Initialize                                0     0      0       0
 ---------------------------------------------------------------------------------
 (2) _INTERRUPT_Initialize                                 0     0      0       0
 ---------------------------------------------------------------------------------
 (2) _I2C_Initialize                                       0     0      0       0
 ---------------------------------------------------------------------------------
 (2) _EUSART1_Initialize                                   0     0      0     605
            _EUSART1_SetErrorHandler
     _EUSART1_SetFramingErrorHandler
     _EUSART1_SetOverrunErrorHandler
      _EUSART1_SetRxInterruptHandler
      _EUSART1_SetTxInterruptHandler
 ---------------------------------------------------------------------------------
 (3) _EUSART1_SetTxInterruptHandler                        2     0      2     121
                                              4 COMRAM     2     0      2
 ---------------------------------------------------------------------------------
 (3) _EUSART1_SetRxInterruptHandler                        2     0      2     121
                                              4 COMRAM     2     0      2
 ---------------------------------------------------------------------------------
 (3) _EUSART1_SetOverrunErrorHandler                       2     0      2     121
                                              4 COMRAM     2     0      2
 ---------------------------------------------------------------------------------
 (3) _EUSART1_SetFramingErrorHandler                       2     0      2     121
                                              4 COMRAM     2     0      2
 ---------------------------------------------------------------------------------
 (3) _EUSART1_SetErrorHandler                              2     0      2     121
                                              4 COMRAM     2     0      2
 ---------------------------------------------------------------------------------
 (1) _I2C_Open                                             2     2      0      68
                                              4 COMRAM     2     2      0
                 _I2C_MasterClearIrq
                     _I2C_MasterOpen
 ---------------------------------------------------------------------------------
 (2) _I2C_MasterOpen                                       0     0      0       0
 ---------------------------------------------------------------------------------
 (1) _I2C_MasterOperation                                  2     2      0  120625
                                             19 COMRAM     2     2      0
                    _I2C_MasterStart
                         _I2C_Poller
 ---------------------------------------------------------------------------------
 (2) _I2C_Poller                                           0     0      0  120557
                      _I2C_MasterFsm
             _I2C_MasterWaitForEvent
 ---------------------------------------------------------------------------------
 (3) _I2C_MasterWaitForEvent                               0     0      0       0
 ---------------------------------------------------------------------------------
 (3) _I2C_MasterFsm                                        1     1      0  120557
                                             18 COMRAM     1     1      0
                _I2C_DO_ADDRESS_NACK *
                        _I2C_DO_IDLE *
                        _I2C_DO_RCEN *
                       _I2C_DO_RESET *
                          _I2C_DO_RX *
                      _I2C_DO_RX_ACK *
             _I2C_DO_RX_NACK_RESTART *
                _I2C_DO_RX_NACK_STOP *
               _I2C_DO_SEND_ADR_READ *
              _I2C_DO_SEND_ADR_WRITE *
                _I2C_DO_SEND_RESTART *
           _I2C_DO_SEND_RESTART_READ *
          _I2C_DO_SEND_RESTART_WRITE *
                   _I2C_DO_SEND_STOP *
                          _I2C_DO_TX *
                    _I2C_DO_TX_EMPTY *
                 _I2C_MasterClearIrq
                   _I2C_MasterIsNack
 ---------------------------------------------------------------------------------
 (4) _I2C_DO_TX_EMPTY                                      2     2      0   30116
                                             16 COMRAM     2     2      0
                                NULL *
            _I2C_CallbackReturnReset *
             _I2C_CallbackReturnStop *
                _I2C_DO_SEND_RESTART
                   _I2C_DO_SEND_STOP
                   _I2C_MasterSetIrq
              _rd1RegCompleteHandler *
              _rd2RegCompleteHandler *
            _rdBlkRegCompleteHandler *
              _wr1RegCompleteHandler *
              _wr2RegCompleteHandler *
 ---------------------------------------------------------------------------------
 (5) _I2C_MasterSetIrq                                     0     0      0       0
 ---------------------------------------------------------------------------------
 (4) _I2C_DO_TX                                            2     2      0   30147
                                             16 COMRAM     2     2      0
                                NULL *
            _I2C_CallbackReturnReset *
             _I2C_CallbackReturnStop *
           _I2C_DO_SEND_RESTART_READ
          _I2C_DO_SEND_RESTART_WRITE
                   _I2C_DO_SEND_STOP
                   _I2C_MasterIsNack
               _I2C_MasterSendTxData
              _rd1RegCompleteHandler *
              _rd2RegCompleteHandler *
            _rdBlkRegCompleteHandler *
              _wr1RegCompleteHandler *
              _wr2RegCompleteHandler *
 ---------------------------------------------------------------------------------
 (4) _I2C_MasterIsNack                                     0     0      0       0
 ---------------------------------------------------------------------------------
 (5) _I2C_DO_SEND_RESTART_WRITE                            0     0      0       0
            _I2C_MasterEnableRestart
 ---------------------------------------------------------------------------------
 (5) _I2C_DO_SEND_RESTART_READ                             0     0      0       0
            _I2C_MasterEnableRestart
 ---------------------------------------------------------------------------------
 (4) _I2C_DO_SEND_ADR_WRITE                                0     0      0      31
               _I2C_MasterSendTxData
 ---------------------------------------------------------------------------------
 (4) _I2C_DO_SEND_ADR_READ                                 0     0      0      31
               _I2C_MasterSendTxData
 ---------------------------------------------------------------------------------
 (5) _I2C_MasterSendTxData                                 1     1      0      31
                                              4 COMRAM     1     1      0
 ---------------------------------------------------------------------------------
 (4) _I2C_DO_RX_ACK                                        0     0      0       0
                  _I2C_MasterSendAck
 ---------------------------------------------------------------------------------
 (4) _I2C_DO_RX                                            2     2      0   30116
                                             16 COMRAM     2     2      0
                                NULL *
            _I2C_CallbackReturnReset *
             _I2C_CallbackReturnStop *
             _I2C_DO_RX_NACK_RESTART
                _I2C_DO_RX_NACK_STOP
                _I2C_MasterGetRxData
                  _I2C_MasterSendAck
              _rd1RegCompleteHandler *
              _rd2RegCompleteHandler *
            _rdBlkRegCompleteHandler *
              _wr1RegCompleteHandler *
              _wr2RegCompleteHandler *
 ---------------------------------------------------------------------------------
 (5) _I2C_MasterSendAck                                    0     0      0       0
 ---------------------------------------------------------------------------------
 (5) _I2C_MasterGetRxData                                  0     0      0       0
 ---------------------------------------------------------------------------------
 (4) _I2C_DO_RX_NACK_STOP                                  0     0      0       0
                 _I2C_MasterSendNack
 ---------------------------------------------------------------------------------
 (4) _I2C_DO_RX_NACK_RESTART                               0     0      0       0
                 _I2C_MasterSendNack
 ---------------------------------------------------------------------------------
 (5) _I2C_MasterSendNack                                   0     0      0       0
 ---------------------------------------------------------------------------------
 (4) _I2C_DO_RESET                                         0     0      0       0
 ---------------------------------------------------------------------------------
 (4) _I2C_DO_RCEN                                          0     0      0       0
                  _I2C_MasterStartRx
 ---------------------------------------------------------------------------------
 (5) _I2C_MasterStartRx                                    0     0      0       0
 ---------------------------------------------------------------------------------
 (4) _I2C_DO_IDLE                                          0     0      0       0
 ---------------------------------------------------------------------------------
 (4) _I2C_DO_ADDRESS_NACK                                  2     2      0   30116
                                             16 COMRAM     2     2      0
                                NULL *
            _I2C_CallbackReturnReset *
             _I2C_CallbackReturnStop *
                _I2C_DO_SEND_RESTART
                   _I2C_DO_SEND_STOP
              _rd1RegCompleteHandler *
              _rd2RegCompleteHandler *
            _rdBlkRegCompleteHandler *
              _wr1RegCompleteHandler *
              _wr2RegCompleteHandler *
 ---------------------------------------------------------------------------------
 (5) _wr2RegCompleteHandler                                2     0      2    5952
                                             13 COMRAM     2     0      2
                      _I2C_SetBuffer
        _I2C_SetDataCompleteCallback
 ---------------------------------------------------------------------------------
 (5) _wr1RegCompleteHandler                                2     0      2    5952
                                             13 COMRAM     2     0      2
                      _I2C_SetBuffer
        _I2C_SetDataCompleteCallback
 ---------------------------------------------------------------------------------
 (5) _rdBlkRegCompleteHandler                              3     1      2    5983
                                             13 COMRAM     3     1      2
                      _I2C_SetBuffer
        _I2C_SetDataCompleteCallback
 ---------------------------------------------------------------------------------
 (5) _rd2RegCompleteHandler                                2     0      2    5952
                                             13 COMRAM     2     0      2
                      _I2C_SetBuffer
        _I2C_SetDataCompleteCallback
 ---------------------------------------------------------------------------------
 (5) _rd1RegCompleteHandler                                2     0      2    5952
                                             13 COMRAM     2     0      2
                      _I2C_SetBuffer
        _I2C_SetDataCompleteCallback
 ---------------------------------------------------------------------------------
 (6) _I2C_SetDataCompleteCallback                          4     0      4    2979
                                              9 COMRAM     4     0      4
                    _I2C_SetCallback
 ---------------------------------------------------------------------------------
 (7) _I2C_SetCallback                                      5     1      4    1117
                                              4 COMRAM     5     1      4
 ---------------------------------------------------------------------------------
 (1) _I2C_SetBuffer                                        4     0      4    2942
                                              4 COMRAM     4     0      4
 ---------------------------------------------------------------------------------
 (5) _I2C_DO_SEND_STOP                                     0     0      0       0
                     _I2C_MasterStop
 ---------------------------------------------------------------------------------
 (6) _I2C_MasterStop                                       0     0      0       0
 ---------------------------------------------------------------------------------
 (5) _I2C_DO_SEND_RESTART                                  0     0      0       0
            _I2C_MasterEnableRestart
 ---------------------------------------------------------------------------------
 (6) _I2C_MasterEnableRestart                              0     0      0       0
 ---------------------------------------------------------------------------------
 (5) _I2C_CallbackReturnStop                               2     0      2       0
                                             13 COMRAM     2     0      2
 ---------------------------------------------------------------------------------
 (5) _I2C_CallbackReturnReset                              2     0      2     325
                                             13 COMRAM     2     0      2
 ---------------------------------------------------------------------------------
 (10) NULL(Fake)                                           2     0      2       0
 ---------------------------------------------------------------------------------
 (2) _I2C_MasterStart                                      0     0      0       0
 ---------------------------------------------------------------------------------
 (1) _I2C_Close                                            1     1      0      37
                                              4 COMRAM     1     1      0
                 _I2C_MasterClearIrq
                    _I2C_MasterClose
               _I2C_MasterDisableIrq
 ---------------------------------------------------------------------------------
 (2) _I2C_MasterDisableIrq                                 0     0      0       0
 ---------------------------------------------------------------------------------
 (2) _I2C_MasterClose                                      0     0      0       0
 ---------------------------------------------------------------------------------
 (2) _I2C_MasterClearIrq                                   0     0      0       0
 ---------------------------------------------------------------------------------
 Estimated maximum stack depth 10
 ---------------------------------------------------------------------------------
 (Depth) Function   	        Calls       Base Space   Used Autos Params    Refs
 ---------------------------------------------------------------------------------
 (8) _INTERRUPT_InterruptManager                           4     4      0       0
                                              0 COMRAM     4     4      0
                                NULL *
                _EUSART1_Receive_ISR *
               _EUSART1_Transmit_ISR *
 ---------------------------------------------------------------------------------
 (9) _EUSART1_Transmit_ISR                                 0     0      0       0
 ---------------------------------------------------------------------------------
 (9) _EUSART1_Receive_ISR                                  0     0      0       0
                                NULL *
        _EUSART1_DefaultErrorHandler *
 _EUSART1_DefaultFramingErrorHandler *
 _EUSART1_DefaultOverrunErrorHandler *
              _EUSART1_RxDataHandler
 ---------------------------------------------------------------------------------
 (10) _EUSART1_DefaultOverrunErrorHandler                  0     0      0       0
 ---------------------------------------------------------------------------------
 (10) _EUSART1_DefaultFramingErrorHandler                  0     0      0       0
 ---------------------------------------------------------------------------------
 (10) _EUSART1_DefaultErrorHandler                         0     0      0       0
              _EUSART1_RxDataHandler
 ---------------------------------------------------------------------------------
 (10) _EUSART1_RxDataHandler                               0     0      0       0
 ---------------------------------------------------------------------------------
 (10) NULL(Fake)                                           2     0      2       0
 ---------------------------------------------------------------------------------
 Estimated maximum stack depth 10
 ---------------------------------------------------------------------------------

 Call Graph Graphs:

 _main (ROOT)
   _I2C_Close
     _I2C_MasterClearIrq
     _I2C_MasterClose
     _I2C_MasterDisableIrq
   _I2C_MasterOperation
     _I2C_MasterStart
     _I2C_Poller
       _I2C_MasterFsm
         _I2C_DO_ADDRESS_NACK *
           NULL(Fake) *
           _I2C_CallbackReturnReset *
           _I2C_CallbackReturnStop *
           _I2C_DO_SEND_RESTART *
             _I2C_MasterEnableRestart
           _I2C_DO_SEND_STOP *
             _I2C_MasterStop
           _rd1RegCompleteHandler *
             _I2C_SetBuffer
             _I2C_SetDataCompleteCallback
               _I2C_SetCallback
           _rd2RegCompleteHandler *
             _I2C_SetBuffer
             _I2C_SetDataCompleteCallback
           _rdBlkRegCompleteHandler *
             _I2C_SetBuffer
             _I2C_SetDataCompleteCallback
           _wr1RegCompleteHandler *
             _I2C_SetBuffer
             _I2C_SetDataCompleteCallback
           _wr2RegCompleteHandler *
             _I2C_SetBuffer
             _I2C_SetDataCompleteCallback
         _I2C_DO_IDLE *
         _I2C_DO_RCEN *
           _I2C_MasterStartRx
         _I2C_DO_RESET *
         _I2C_DO_RX *
           NULL(Fake) *
           _I2C_CallbackReturnReset *
           _I2C_CallbackReturnStop *
           _I2C_DO_RX_NACK_RESTART *
             _I2C_MasterSendNack
           _I2C_DO_RX_NACK_STOP *
             _I2C_MasterSendNack
           _I2C_MasterGetRxData *
           _I2C_MasterSendAck *
           _rd1RegCompleteHandler *
           _rd2RegCompleteHandler *
           _rdBlkRegCompleteHandler *
           _wr1RegCompleteHandler *
           _wr2RegCompleteHandler *
         _I2C_DO_RX_ACK *
           _I2C_MasterSendAck
         _I2C_DO_RX_NACK_RESTART *
         _I2C_DO_RX_NACK_STOP *
         _I2C_DO_SEND_ADR_READ *
           _I2C_MasterSendTxData
         _I2C_DO_SEND_ADR_WRITE *
           _I2C_MasterSendTxData
         _I2C_DO_SEND_RESTART *
         _I2C_DO_SEND_RESTART_READ *
           _I2C_MasterEnableRestart
         _I2C_DO_SEND_RESTART_WRITE *
           _I2C_MasterEnableRestart
         _I2C_DO_SEND_STOP *
         _I2C_DO_TX *
           NULL(Fake) *
           _I2C_CallbackReturnReset *
           _I2C_CallbackReturnStop *
           _I2C_DO_SEND_RESTART_READ *
           _I2C_DO_SEND_RESTART_WRITE *
           _I2C_DO_SEND_STOP *
           _I2C_MasterIsNack *
           _I2C_MasterSendTxData *
           _rd1RegCompleteHandler *
           _rd2RegCompleteHandler *
           _rdBlkRegCompleteHandler *
           _wr1RegCompleteHandler *
           _wr2RegCompleteHandler *
         _I2C_DO_TX_EMPTY *
           NULL(Fake) *
           _I2C_CallbackReturnReset *
           _I2C_CallbackReturnStop *
           _I2C_DO_SEND_RESTART *
           _I2C_DO_SEND_STOP *
           _I2C_MasterSetIrq *
           _rd1RegCompleteHandler *
           _rd2RegCompleteHandler *
           _rdBlkRegCompleteHandler *
           _wr1RegCompleteHandler *
           _wr2RegCompleteHandler *
         _I2C_MasterClearIrq *
         _I2C_MasterIsNack *
       _I2C_MasterWaitForEvent
   _I2C_Open
     _I2C_MasterClearIrq
     _I2C_MasterOpen
   _I2C_SetBuffer
   _SYSTEM_Initialize
     _EUSART1_Initialize
       _EUSART1_SetErrorHandler
       _EUSART1_SetFramingErrorHandler
       _EUSART1_SetOverrunErrorHandler
       _EUSART1_SetRxInterruptHandler
       _EUSART1_SetTxInterruptHandler
     _I2C_Initialize
     _INTERRUPT_Initialize
     _OSCILLATOR_Initialize
     _PIN_MANAGER_Initialize

 _INTERRUPT_InterruptManager (ROOT)
   NULL(Fake) *
   _EUSART1_Receive_ISR *
     NULL(Fake) *
     _EUSART1_DefaultErrorHandler *
       _EUSART1_RxDataHandler
     _EUSART1_DefaultFramingErrorHandler *
     _EUSART1_DefaultOverrunErrorHandler *
     _EUSART1_RxDataHandler *
   _EUSART1_Transmit_ISR *

 Address spaces:
Name               Size   Autos  Total    Cost      Usage
BIGRAM             E40      0       0      49        0.0%
EEDATA             400      0       0       0        0.0%
BITBIGSFRlllll     11A      0       0      37        0.0%
BITBANK13          100      0       0      46        0.0%
BANK13             100      0       0      23        0.0%
BITBANK12          100      0       0      45        0.0%
BANK12             100      0       0      22        0.0%
BITBANK11          100      0       0      20        0.0%
BANK11             100      0       0      21        0.0%
BITBANK10          100      0       0      44        0.0%
BANK10             100      0       0      19        0.0%
BITBANK9           100      0       0      43        0.0%
BANK9              100      0       0      18        0.0%
BITBANK8           100      0       0      42        0.0%
BANK8              100      0       0      17        0.0%
BITBANK7           100      0       0      41        0.0%
BANK7              100      0       0      16        0.0%
BITBANK6           100      0       0      40        0.0%
BANK6              100      0       0      15        0.0%
BITBANK5           100      0       0      39        0.0%
BANK5              100      0       0      14        0.0%
BITBANK4           100      0       0      12        0.0%
BANK4              100      0       0      13        0.0%
BITBANK3           100      0       0      10        0.0%
BANK3              100      0       0      11        0.0%
BITBANK2           100      0       0       8        0.0%
BANK2              100      0       0       9        0.0%
BITBANK1           100      0       0       6        0.0%
BANK1              100      0       0       7        0.0%
BITBANK0            A0      0       0       4        0.0%
BANK0               A0     3E      82       5       81.2%
BITCOMRAM           5E      0       0       0        0.0%
COMRAM              5E     17      20       1       34.0%
BITBANK14           41      0       0      47        0.0%
BANK14              41      0       0      48        0.0%
BITBIGSFRllllh      1F      0       0      36        0.0%
BITBIGSFRhhl        1D      0       0      25        0.0%
BITBIGSFRlhhhh      15      0       0      28        0.0%
BITBIGSFRhhh         D      0       0      24        0.0%
BITBIGSFRlllhll      B      0       0      35        0.0%
BITBIGSFRlllhlh      6      0       0      34        0.0%
BITBIGSFRhll         6      0       0      27        0.0%
BITBIGSFRlllhlh      5      0       0      33        0.0%
BITBIGSFRlhl         5      0       0      30        0.0%
BITBIGSFRlhhl        3      0       0      29        0.0%
BITBIGSFRllh         2      0       0      31        0.0%
BITBIGSFRhlh         1      0       0      26        0.0%
BITBIGSFRlllhh       1      0       0      32        0.0%
BIGSFR               0      0       0     200        0.0%
BITSFR_2             0      0       0     200        0.0%
SFR_2                0      0       0     200        0.0%
BITSFR_1             0      0       0     200        0.0%
SFR_1                0      0       0     200        0.0%
BITSFR               0      0       0     200        0.0%
SFR                  0      0       0     200        0.0%
STACK                0      0       0       2        0.0%
NULL                 0      0       0       0        0.0%
ABS                  0      0      A2      38        0.0%
DATA                 0      0      A2       3        0.0%
CODE                 0      0       0       0        0.0%


Microchip Technology PIC18 Macro Assembler V2.45 build 20230818022343 
Symbol Table                                                                                   Tue Feb 25 11:48:22 2025

                        ??_I2C_DO_SEND_ADR_READ 0005                        _eusart1TxBufferRemaining 001C  
                       ??_I2C_DO_SEND_ADR_WRITE 0006                                     _SSPSTATbits 0FC7  
                                            l90 16BA                                              l93 168E  
                                            l96 1662                                              l99 16E6  
                         ??_I2C_DO_SEND_RESTART 0005                                             l102 15FA  
                                           l213 134A                                             l223 15B8  
                                           l312 13C8                                             l217 1712  
                                           l209 182C                                             l402 194C  
                                           l306 189A                                             l330 1910  
                                           l411 1924                                             l236 17AA  
                                           l405 1840                                             l333 1908  
                                           l342 18F0                                             l262 17EA  
                                           l239 1802                                             l351 188E  
                                           l256 1574                                             l408 191E  
                                           l432 1938                                             l272 1882  
                                           l336 1900                                             l281 1164  
                                           l345 18E8                                             l426 1958  
                                           l266 150E                                             l514 143C  
                                           l610 1852                                             l275 1872  
                                           l339 18F8                                             l435 1854  
                                           l348 18E0                                             l429 1960  
                                           l381 195C                                             l365 1948  
                                           l269 18A6                                             l357 14A8  
                                           l390 1950                                             l278 112C  
                                           l294 124C                                             l295 12BC  
                                           l439 1862                                             l607 1818  
                                           l368 1944                                             l384 193C  
                                           l625 1934                                             l378 17CC  
                                           l387 1918                                             l396 1940  
                                           l580 18D8                                             l661 173A  
                                           l574 18CE                                             l399 1954  
                                           l583 18B0                                             l577 18C4  
                                           l586 18BA                          fp__I2C_DO_RX_NACK_STOP 0000  
                        _I2C_MasterWaitForEvent 1854                                             tosl 0FFD  
                                           wreg 0FE8                                      _TXSTA1bits 0FAC  
                      ??_I2C_CallbackReturnStop 0010                                    _I2C_DO_RESET 1884  
                       ??_rd2RegCompleteHandler 0010                                            l3100 1638  
                                          l3110 16D0                                            l3102 164C  
                                          l3112 16E4                                            l3104 1660  
                                          l3120 15F8                                            l3202 1864  
                                          l3210 109E                                            l3130 190A  
                                          l3108 16BC                                            l3116 15BA  
                                          l3124 182E                                            l3300 136E  
                                          l3204 1868                                            l3132 190E  
                                          l3070 1788                                            l3062 1512  
                                          l3118 15E4                                            l3206 1870  
                                          l3230 1130                                            l3222 10C6  
                                          l3214 10B6                                            l3142 18F2  
                                          l3080 194A                                            l3072 1798  
                                          l3064 1524                                            l3152 191A  
                                          l3128 1914                                            l3232 1142  
                                          l3136 1902                                            l3144 18F6  
                                          l3160 18E2                                            l3312 1884  
                                          l3320 143E                                            l3400 13F2  
                                          l3074 17A0                                            l3066 1550  
                                          l3082 1920                                            l3234 115C  
                                          l3218 10BE                                            l3250 1242  
                                          l3138 1906                                            l3170 18FE  
                                          l3306 18EA                                            l3162 18E6  
                                          l3154 18DA                                            l3314 1888  
                                          l3322 1442                                            l3410 143A  
                                          l3402 13F6                                            l3076 17A8  
                                          l3068 17EC                                            l3084 1690  
                                          l3092 1664                                            l3180 1942  
                                          l3148 193A                                            l3236 1162  
                                          l3228 10CE                                            l3252 1246  
                                          l3244 1216                                            l3308 18EE  
                                          l3156 18DE                                            l3316 188C  
                                          l3324 144A                                            l3500 15B2  
                                          l3404 13FA                                            l3412 1932  
                                          l3420 1842                                            l3078 194E  
                                          l3086 16A4                                            l3094 1678  
                                          l3166 193E                                            l3174 1936  
                                          l3190 18A4                                            l3262 125A  
                                          l3246 1224                                            l3334 145A  
                                          l3350 14D8                                            l3342 14AA  
                                          l3502 15B6                                            l3430 12DA  
                                          l3422 12C0                                            l3406 1406  
                                          l3414 1714                                            l3510 180C  
                                          l3184 195E                                            l3088 16B8  
                                          l3096 168C                                            l3176 1946  
                                          l3248 122A                                            l3168 18FA  
                                          l3328 1452                                            l3344 14AE  
                                          l3440 12EC                                            l3432 12DC  
                                          l3424 12C4                                            l3360 18D0  
                                          l3352 18B2                                            l3408 1412  
                                          l3416 1724                                            l3512 1810  
                                          l3290 1360                                            l3282 134C  
                                          l3186 189C                                            l3194 1874  
                                          l3258 1252                                            l3274 1890  
                                          l3346 14BE                                            l3370 17CA  
                                          l3450 1314                                            l3442 12F4  
                                          l3434 12DE                                            l3426 12D4  
                                          l3354 18A8                                            l3362 181A  
                                          l3418 1738                                            l3514 1814  
                                          l3506 1804                                            l3284 1354  
                                          l3188 18A0                                            l3196 1878  
                                          l3268 1262                                            l3276 1894  
                                          l3348 14D2                                            l3380 17CE  
                                          l3460 133C                                            l3452 131C  
                                          l3444 12FC                                            l3436 12E2  
                                          l3428 12D8                                            l3356 18C6  
                                          l3364 182A                                            l3508 1808  
                                          l3700 103C                                            l3374 1956  
                                          l3470 16E8                                            l3294 1366  
                                          l3198 1880                                            l3278 1898  
                                          l3382 17D2                                            l3366 17AC  
                                          l3462 1340                                            l3454 1324  
                                          l3446 1304                                            l3438 12EA  
                                          l3358 18BC                                            l3390 13CC  
                                          l3702 1052                                            l3376 195A  
                                          l3480 1710                                            l3472 16EC  
                                          l3288 135C                                            l3384 17D6  
                                          l3368 17BA                                            l3464 1344  
                                          l3456 132C                                            l3448 130C  
                                          l3392 13D8                                            l3704 1064  
                                          l3474 16FC                                            l3378 1952  
                                          l3386 17DA                                            l3490 158E  
                                          l3458 1334                                            l3466 1348  
                                          l3394 13E6                                            l3706 106A  
                                          l3476 1700                                            l3492 1592  
                                          l3484 1578                                            l3396 13EA  
                                          l3388 13CA                                            l3708 107E  
                                          l3660 0F30                                            l3478 170C  
                                          l3494 15A2                                            l3486 157C  
                                          l3398 13EE                                            l3662 0F34  
                                          l3654 0F22                                            l3496 15AA  
                                          l3488 158C                                            l3680 0F96  
                                          l3672 0F44                                            l3664 0F38  
                                          l3656 0F26                                            l3498 15AE  
                                          l3690 0FE8                                            l3682 0FA8  
                                          l3674 0F60                                            l3666 0F3C  
                                          l3658 0F2C                                            l3692 0FFA  
                                          l3684 0FAE                                            l3676 0F64  
                                          l3790 1492                                            l3694 1000  
                                          l3686 0FC2                                            l3678 0F80  
                                          l3792 1296                                            l3696 1018  
                                          l3688 0FD2                                            l3794 1106  
                                          l3698 102C                                            l3796 13A2  
                                          u1300 1798                                            u1301 1794  
                                          u1310 183E                                            u1311 1838  
                                          u1320 10B2                                            u1400 14BE  
                                          u1321 10AE                                            u1401 14BA  
                                          u1410 14D2                                            u1411 14CE  
                                          u1316 1840                                            u1340 115C  
                                          u1341 1158                                            _LATA 0F89  
                                          u1350 1242                                            u1430 17BA  
                                          _LATB 0F8A                                            u1351 123E  
                                          u1431 17B6                                            _LATC 0F8B  
                                          u1440 17EA                                            u1441 17E6  
                                          u1290 1524                                            u1338 10E0  
                                          u1450 12D4                                            u1291 1520  
                                          u1339 10F4                                            u1451 12D0  
                                          u1460 16FC                                            u1428 14F2  
                                          u1700 1052                                            u1461 16F8  
                                          u1429 150A                                            u1701 104E  
                                          u1390 1862                                            u1470 158C  
                                          u1710 107E                                            u1391 185E  
                                          u1471 1588                                            u1711 107A  
                                          u1368 1270                                            u1480 15A2  
                                          u1369 1284                                            u1481 159E  
                                          u1378 137C                                            u1650 0F80  
                                          u1379 1390                                            u1651 0F7C  
                                          u1388 146C                                            u1660 0F96  
                                          u1389 1480                                            u1661 0F92  
                                          u1670 0FC2                                            u1727 0FC8  
                                          u1671 0FBE                                            u1680 0FE8  
                                          u1737 1032                                            u1681 0FE4  
                                          u1690 102C                                            u1747 1088  
                                          u1691 1028                                            _WPUB 0F5B  
                       ??_wr2RegCompleteHandler 0010                                     main@message 0074  
                                          _main 0F22                        ?_I2C_CallbackReturnReset 000E  
                                          fsr1h 0FE2                                            fsr2h 0FDA  
                                          indf1 0FE7                                            indf2 0FDF  
                                          fsr1l 0FE1                                            fsr2l 0FD9  
                              __end_of_I2C_Open 134C                                            btemp 0021  
                                          prodl 0FF3                                            start 00B2  
                  fp__I2C_DO_SEND_RESTART_WRITE 0000                  fp__EUSART1_DefaultErrorHandler 0000  
                                  ___param_bank 0000                                ?_I2C_MasterClose 0001  
                              ?_I2C_MasterStart 0001                                   _I2C_DO_RX_ACK 18EA  
                 __end_of_OSCILLATOR_Initialize 1854                           _eusart1RxStatusBuffer 00C2  
                                         ?_main 0001                                           i2l551 1636  
                                         i2l631 0062                                           i2l632 009E  
                                         i2l562 1786                                           i2l571 1930  
                                         i2l548 1634                                           i2l636 009E  
                                         i2l565 1962                                           i2l558 1214  
                                         i2l568 192A                               ??_I2C_DO_TX_EMPTY 0011  
                                         _TRISA 0F92                                           _TRISB 0F93  
                                         _TRISC 0F94                            _EUSART1_Transmit_ISR 15FC  
                             __end_of_I2C_DO_RX 12BE                               __end_of_I2C_DO_TX 1166  
                             __end_of_I2C_Close 1714                  I2C_MasterOperation@returnValue 0015  
                                         main@i 009C                         _I2C_MasterEnableRestart 194E  
                                         pclath 0FFA                                           pclatu 0FFB  
                                         tablat 0FF5                                ?_I2C_SetCallback 0005  
                                         ttemp5 0022                                           ttemp6 0025  
                                         ttemp7 0029                                           status 0FD8  
                                         wtemp8 0022                               ?_I2C_DO_SEND_STOP 0001  
         fp__EUSART1_DefaultFramingErrorHandler 0000      __end_of_EUSART1_DefaultFramingErrorHandler 1964  
          ??_EUSART1_DefaultFramingErrorHandler 0001             ?_EUSART1_DefaultFramingErrorHandler 0001  
            _EUSART1_DefaultFramingErrorHandler 1962                              ??_I2C_DO_SEND_STOP 0005  
                      fp__rd1RegCompleteHandler 0000                                 __initialization 173C  
                    __end_of_EUSART1_Initialize 143E                                    __end_of_main 109E  
                      fp__wr1RegCompleteHandler 0000                       ?_I2C_DO_SEND_RESTART_READ 0001  
                                ?_I2C_DO_RX_ACK 0001                     ?_INTERRUPT_InterruptManager 0001  
                                        ??_main 0016                               ?_I2C_MasterIsNack 0001  
                                 __activetblptr 0002                               ?_I2C_MasterSetIrq 0001  
                            ??_I2C_MasterIsNack 0005                           ?_EUSART1_Transmit_ISR 0001  
                            ??_I2C_MasterSetIrq 0005                 __end_of_I2C_CallbackReturnReset 1946  
                                        _ANCON0 0F5D                                          _ANCON1 0F5C  
                 I2C_SetDataCompleteCallback@cb 000A                                    ??_I2C_Poller 0014  
                                        i2l2540 1762                                          i2l2542 176E  
                                        i2l2710 162A                                          i2l2702 15FC  
                                        i2l2544 1770                                          i2l2720 118A  
                                        i2l2712 162E                                          i2l2704 160C  
                                        i2l2546 1780                                          i2l2730 11F0  
                                        i2l2722 11A4                                          i2l2714 1166  
                                        i2l2706 1618                                          i2l2548 1784  
                                        i2l2732 1210                                          i2l2724 11B2  
                                        i2l2716 1170                                          i2l2708 161A  
                                        i2l2726 11BE                                          i2l2718 117E  
                                        i2l2728 11D8                                          i2l2920 0044  
                                        i2l2922 0070                                          i2l2914 001A  
                                        i2l2596 1926                                          i2l2924 007E  
                                        i2l2916 0028                                          i2l2598 192C  
                                        i2l2918 0036                                          _RCREG1 0FAE  
                                        _RCSTA1 0FAB                                          _OSCCON 0FD3  
                                        _SPBRG1 0FAF                                          _SSPADD 0FC8  
                                        _SSPBUF 0FC9                                          _TXREG1 0FAD  
                                        _TXSTA1 0FAC                             _I2C_MasterGetRxData 193A  
                                 _I2C_MasterFsm 14AA                        ?_EUSART1_SetErrorHandler 0005  
                                        clear_0 1742                                          clear_1 174E  
                             I2C_SetCallback@cb 0005                         fp__I2C_DO_SEND_ADR_READ 0000  
                                        isa$std 0001                ??_EUSART1_SetOverrunErrorHandler 0007  
               ?_EUSART1_SetOverrunErrorHandler 0005                                   _I2C_SetBuffer 1788  
                            __end_of_I2C_Poller 17EC                    __end_of_I2C_MasterDisableIrq 195A  
                           _I2C_DO_ADDRESS_NACK 143E                            ?_I2C_MasterGetRxData 0001  
                                     ?_I2C_Open 0001                                    __mediumconst 0000  
                                        tblptrh 0FF7                                          tblptrl 0FF6  
                                        tblptru 0FF8                       ??_I2C_MasterEnableRestart 0005  
                               _eusart1RxBuffer 00CA                                 _eusart1TxBuffer 00D2  
                             _SYSTEM_Initialize 1804                                      __accesstop 0060  
                       __end_of__initialization 1754                             _I2C_MasterOperation 1576  
                            ?_SYSTEM_Initialize 0001                                   ___rparam_used 0001  
                          ?_I2C_DO_ADDRESS_NACK 0001                   __end_of_EUSART1_RxDataHandler 1788  
                       _rdBlkRegCompleteHandler 15BA                      fp__rdBlkRegCompleteHandler 0000  
                                __pcstackCOMRAM 0001                                  ?_I2C_MasterFsm 0001  
                               ??_I2C_DO_RX_ACK 0005                          _I2C_CallbackReturnStop 1946  
                           ??_SYSTEM_Initialize 0007                                  ?_I2C_SetBuffer 0005  
                       ?_I2C_MasterWaitForEvent 0001                   __end_of_I2C_DO_SEND_ADR_WRITE 1874  
                    ?_I2C_DO_SEND_RESTART_WRITE 0001                            ?_I2C_MasterOperation 0001  
                        ??_EUSART1_Transmit_ISR 0001                           ??_I2C_MasterGetRxData 0005  
                                    ??_I2C_Open 0005                     __end_of_EUSART1_Receive_ISR 1216  
                    __end_of_I2C_MasterClearIrq 1962                       __end_of_SYSTEM_Initialize 181A  
                             _I2C_MasterSendAck 191A                                   _eusart1RxHead 001B  
                                 _eusart1TxHead 001E                                   _eusart1RxTail 001A  
                                    __pbssBANK0 009E                                   _eusart1TxTail 001D  
             _EUSART1_TxDefaultInterruptHandler 001F                 ??_EUSART1_SetRxInterruptHandler 0007  
                                 ??_I2C_DO_IDLE 0005                                   ??_I2C_DO_RCEN 0005  
                 __end_of_rd2RegCompleteHandler 1690                    __end_of_I2C_MasterSendTxData 191A  
                            ?_I2C_MasterSendAck 0001                               _I2C_MasterStartRx 193E  
                                    __pnvCOMRAM 001F                           ??_I2C_DO_ADDRESS_NACK 0011  
                 __end_of_wr2RegCompleteHandler 16E8                             _I2C_DO_RX_NACK_STOP 18E2  
                         _rd1RegCompleteHandler 1690                              ?_I2C_MasterStartRx 0001  
                    __end_of_I2C_MasterSendNack 1926                           _wr1RegCompleteHandler 1638  
               __end_of_EUSART1_SetErrorHandler 18DA                             ??_I2C_MasterSendAck 0005  
                      rd1RegCompleteHandler@ptr 000E                     __end_of_I2C_DO_SEND_RESTART 1902  
                               _I2C_DO_TX_EMPTY 134C                             I2C_SetBuffer@buffer 0005  
                __end_of_I2C_MasterWaitForEvent 1864                             ??_I2C_MasterStartRx 0005  
                         ??_I2C_MasterOperation 0014                  I2C_SetDataCompleteCallback@ptr 000C  
        __end_of_EUSART1_SetFramingErrorHandler 18D0                  _EUSART1_SetFramingErrorHandler 18C6  
                      ??_I2C_DO_RX_NACK_RESTART 0005               __end_of_I2C_DO_SEND_RESTART_WRITE 190A  
                          ?_I2C_DO_RX_NACK_STOP 0001                    ?_EUSART1_DefaultErrorHandler 0001  
                                       _REFOCON 0F9A                                         _OSCCON2 0FD2  
                     __end_of_I2C_MasterSendAck 1920                                         _OSCTUNE 0F9B  
                                       i2u90_40 162A                                         i2u90_41 1626  
                                       i2u91_40 117E                                         i2u91_41 117A  
                                       _SPBRGH1 0F7D                                         i2u93_40 11B2  
                                       i2u92_48 1190                                         i2u93_41 11AE  
                                       i2u92_49 11A4                                         i2u79_40 1780  
                                       i2u95_40 11F0                                         i2u94_48 11C4  
                                       i2u79_41 177C                                         i2u95_41 11EC  
                                       i2u94_49 11D8                                         i2u96_48 11F6  
                                       i2u89_40 160C                                         i2u96_49 120C  
                                       i2u89_41 1608                                         _SSPCON1 0FC6  
                                       _SSPCON2 0FC5                                         _SSPSTAT 0FC7  
                     __end_of_I2C_MasterStartRx 1942                            I2C_Close@returnValue 0005  
                  ?_I2C_SetDataCompleteCallback 000A                                       _I2C_DO_RX 1216  
                                     _I2C_DO_TX 109E                __end_of_I2C_DO_SEND_RESTART_READ 1912  
                                     _I2C_Close 16E8                       ??_rdBlkRegCompleteHandler 0010  
                          _I2C_MasterDisableIrq 1956                                 ??_I2C_MasterFsm 0013  
                                       __Hparam 0000                                         __Lparam 0000  
                           __end_of_I2C_DO_IDLE 18A8                             __end_of_I2C_DO_RCEN 189C  
                               ??_I2C_SetBuffer 0009                         I2C_SetBuffer@bufferSize 0007  
                                  __psmallconst 0F00                                  _I2C_MasterOpen 17AC  
                                       __pcinit 173C                                  _I2C_MasterStop 194A  
                                _I2C_Initialize 181A                                         __ramtop 0F00  
                                       __ptext0 0F22                                         __ptext1 1804  
                                       __ptext2 1714                                         __ptext3 1842  
                                       __ptext4 1932                                         __ptext5 181A  
                                       __ptext6 13CA                                         __ptext7 18A8  
                                       __ptext8 18B2                                         __ptext9 18BC  
                         ??_I2C_DO_RX_NACK_STOP 0005                           _OSCILLATOR_Initialize 1842  
                            I2C_SetCallback@idx 0009                              _EUSART1_Initialize 13CA  
                      ??_PIN_MANAGER_Initialize 0005                   I2C_CallbackReturnReset@funPtr 000E  
                            I2C_SetCallback@ptr 0007                        wr1RegCompleteHandler@ptr 000E  
                      fp__I2C_DO_SEND_ADR_WRITE 0000                   ??_EUSART1_DefaultErrorHandler 0001  
                          end_of_initialization 1754                             ?_EUSART1_Initialize 0001  
                                    ?_I2C_DO_RX 0001                                      ?_I2C_DO_TX 0001  
                                 __Lmediumconst 0000                                      ?_I2C_Close 0001  
                   _EUSART1_OverrunErrorHandler 00DC                          ?_rd1RegCompleteHandler 000E  
                       __end_of_I2C_DO_TX_EMPTY 13CA                           ?_I2C_MasterDisableIrq 0001  
                        ?_wr1RegCompleteHandler 000E           __end_of_EUSART1_SetRxInterruptHandler 18BC  
                 _EUSART1_SetRxInterruptHandler 18B2                        fp__rd2RegCompleteHandler 0000  
                                       postdec2 0FDD                          __end_of_I2C_MasterOpen 17CE  
                      fp__wr2RegCompleteHandler 0000                                         postinc0 0FEE  
                                       postinc2 0FDE                          __end_of_I2C_MasterStop 194E  
                        __end_of_I2C_Initialize 182E                       fp__I2C_CallbackReturnStop 0000  
                          ??_EUSART1_Initialize 0007                 __end_of_rdBlkRegCompleteHandler 15FC  
                          _I2C_MasterSendTxData 1912                                 fp__I2C_DO_RESET 0000  
                       fp__EUSART1_Transmit_ISR 0000                                     _I2C_DO_IDLE 189C  
                                   _I2C_DO_RCEN 1890                      rdBlkRegCompleteHandler@ptr 000E  
                       ?_I2C_CallbackReturnStop 000E                        _I2C_DO_SEND_RESTART_READ 190A  
                   fp__I2C_DO_SEND_RESTART_READ 0000                    I2C_CallbackReturnStop@funPtr 000E  
                               ?_I2C_MasterOpen 0001                    __end_of_INTERRUPT_Initialize 1936  
                               ?_I2C_MasterStop 0001                                 ?_I2C_Initialize 0001  
                       _I2C_CallbackReturnReset 1942                      fp__I2C_CallbackReturnReset 0000  
                         ?_I2C_MasterSendTxData 0001                          ?_OSCILLATOR_Initialize 0001  
                   ??_I2C_DO_SEND_RESTART_WRITE 0005                             start_initialization 173C  
                                 ?_I2C_DO_RESET 0001   EUSART1_SetRxInterruptHandler@interruptHandler 0005  
 EUSART1_SetTxInterruptHandler@interruptHandler 0005                                     ??_I2C_DO_RX 0011  
                                   ??_I2C_DO_TX 0011                               ??_I2C_MasterClose 0005  
                        ??_I2C_MasterDisableIrq 0005                                     ??_I2C_Close 0005  
                             ??_I2C_MasterStart 0005                          fp__EUSART1_Receive_ISR 0000  
                __end_of_I2C_CallbackReturnStop 194A                          _I2C_DO_RX_NACK_RESTART 18DA  
                              ?_I2C_DO_TX_EMPTY 0001                              _I2C_MasterClearIrq 195E  
                         _EUSART1_RxDataHandler 1762                             ?_I2C_MasterClearIrq 0001  
                ?_EUSART1_SetRxInterruptHandler 0005                     __end_of_I2C_MasterGetRxData 193E  
                         __end_of_I2C_DO_RX_ACK 18F2                                _I2C_DO_SEND_STOP 18F2  
                             ??_I2C_SetCallback 0009                             I2C_Open@returnValue 0006  
                            _I2C_MasterSendNack 1920                                  _eusart1RxCount 0019  
                      ?_I2C_MasterEnableRestart 0001                               _i2c_fsmStateTable 0F01  
                        fp__I2C_DO_SEND_RESTART 0000                           _I2C_DO_SEND_ADR_WRITE 1864  
                                   __pbssCOMRAM 0018               _EUSART1_RxDefaultInterruptHandler 00E0  
                                 __pcstackBANK0 0060                                  ??_I2C_DO_RESET 0005  
                           ?_I2C_MasterSendNack 0001                    __end_of_I2C_DO_SEND_ADR_READ 1884  
                          ??_I2C_MasterClearIrq 0005                     __end_of_I2C_DO_ADDRESS_NACK 14AA  
               ??_EUSART1_SetTxInterruptHandler 0007                ??_EUSART1_SetFramingErrorHandler 0007  
               ?_EUSART1_SetFramingErrorHandler 0005                                _I2C_MasterIsNack 182E  
                     _I2C_DO_SEND_RESTART_WRITE 1902                                _I2C_MasterSetIrq 1936  
                                     __pnvBANK0 00DA                           _rd2RegCompleteHandler 1664  
                        _PIN_MANAGER_Initialize 1714                           _wr2RegCompleteHandler 16BC  
                     ??_I2C_CallbackReturnReset 0010                     __end_of_I2C_MasterOperation 15BA  
                          ??_I2C_MasterSendNack 0005                        rd2RegCompleteHandler@ptr 000E  
                                     __pintcode 0008                          ??_I2C_MasterSendTxData 0005  
                     __end_of_i2c_fsmStateTable 0F21                    ??_INTERRUPT_InterruptManager 0001  
                                  fp__I2C_DO_RX 0000                                    fp__I2C_DO_TX 0000  
                                   __smallconst 0F00                                        _BAUDCON1 0FA7  
         fp__EUSART1_DefaultOverrunErrorHandler 0000      __end_of_EUSART1_DefaultOverrunErrorHandler 192C  
          ??_EUSART1_DefaultOverrunErrorHandler 0001             ?_EUSART1_DefaultOverrunErrorHandler 0001  
            _EUSART1_DefaultOverrunErrorHandler 1926                         I2C_MasterOperation@read 0014  
                                      _I2C_Open 12BE                            _EUSART1_ErrorHandler 00DA  
                       _EUSART1_SetErrorHandler 18D0                         ??_rd1RegCompleteHandler 0010  
                          _INTERRUPT_Initialize 1932                         ??_wr1RegCompleteHandler 0010  
       EUSART1_SetErrorHandler@interruptHandler 0005                                        _PIE1bits 0F9D  
                                      i2u120_40 007E                                        i2u120_41 007A  
                                      i2u121_48 0084                                        i2u121_49 009A  
                                      i2u115_40 0028                                        i2u115_41 0024  
                                      i2u116_40 0036                                        i2u116_41 0032  
                                      i2u117_40 0044                                        i2u117_41 0040  
                                      i2u119_40 0070                                        i2u118_48 004A  
                                      i2u119_41 006C                                        i2u118_49 005E  
                                      _PIR1bits 0F9E                                        _PIR2bits 0FA1  
                        ?_EUSART1_RxDataHandler 0001                           __end_of_I2C_MasterFsm 1510  
                                      _RCONbits 0FD0                     __end_of_I2C_DO_RX_NACK_STOP 18EA  
               __end_of_I2C_MasterEnableRestart 1952                                  fp__I2C_DO_IDLE 0000  
                                fp__I2C_DO_RCEN 0000                           __end_of_I2C_SetBuffer 17AC  
                                     main@Addr2 0060                          ?_I2C_DO_SEND_ADR_WRITE 0001  
                      I2C_MasterSendTxData@data 0005                        wr2RegCompleteHandler@ptr 000E  
                                   _INTCON2bits 0FF1                      ??_I2C_DO_SEND_RESTART_READ 0005  
                         ?_INTERRUPT_Initialize 0001                        ?_rdBlkRegCompleteHandler 000E  
                                    _I2C_Poller 17CE                                      _I2C_Status 009E  
                                  ?_I2C_DO_IDLE 0001                                    ?_I2C_DO_RCEN 0001  
                        ?_rd2RegCompleteHandler 000E                                ??_I2C_MasterOpen 0005  
                        ?_wr2RegCompleteHandler 000E                                ??_I2C_MasterStop 0005  
                      ??_I2C_MasterWaitForEvent 0005                                ??_I2C_Initialize 0005  
                     fp__I2C_DO_RX_NACK_RESTART 0000           __end_of_EUSART1_SetTxInterruptHandler 18B2  
                 _EUSART1_SetTxInterruptHandler 18A8                                        __Hrparam 0000  
                                      __Lrparam 0000                            __end_of_I2C_DO_RESET 1890  
                       ??_OSCILLATOR_Initialize 0005                            _I2C_DO_SEND_ADR_READ 1874  
                     ??_EUSART1_SetErrorHandler 0007                                 _I2C_MasterClose 195A  
           __end_of_EUSART1_DefaultErrorHandler 1932                     _EUSART1_DefaultErrorHandler 192C  
                               I2C_Open@address 0005                             fp__I2C_DO_SEND_STOP 0000  
                               _I2C_MasterStart 1952                                        __ptext10 18C6  
                                      __ptext11 18D0                                        __ptext20 18DA  
                                      __ptext12 12BE                                        __ptext21 18E2  
                                      __ptext13 17AC                                        __ptext30 1864  
                                      __ptext22 18EA                                        __ptext14 1576  
                                      __ptext31 1874                                        __ptext23 18F2  
                                      __ptext15 17CE                                        __ptext40 193E  
                                      __ptext32 189C                                        __ptext24 18FA  
                                      __ptext16 1854                                        __ptext41 1942  
                                      __ptext33 134C                                        __ptext25 1902  
                                      __ptext17 14AA                                        __ptext50 1788  
                                      __ptext42 1946                                        __ptext34 1936  
                                      __ptext26 190A                                        __ptext18 143E  
                                      __ptext51 194A                                        __ptext43 15BA  
                                      __ptext35 182E                                        __ptext27 1890  
                                      __ptext19 1884                                        __ptext60 1166  
                                      __ptext52 194E                                        __ptext44 1638  
                                      __ptext36 1912                                        __ptext28 1216  
                                      __ptext61 1926                                        __ptext53 1952  
                                      __ptext45 1664                                        __ptext37 191A  
                                      __ptext29 109E                                        __ptext62 1962  
                                      __ptext54 16E8                                        __ptext46 1690  
                                      __ptext38 193A                                        __ptext63 192C  
                                      __ptext55 1956                                        __ptext47 16BC  
                                      __ptext39 1920                                        __ptext64 1762  
                                      __ptext56 195A                                        __ptext48 17EC  
                                      __ptext65 0000                                        __ptext57 195E  
                                      __ptext49 1510                                        __ptext59 15FC  
           __end_of_I2C_SetDataCompleteCallback 1804                     _I2C_SetDataCompleteCallback 17EC  
                       ?_I2C_DO_RX_NACK_RESTART 0001                        __end_of_I2C_DO_SEND_STOP 18FA  
                               _I2C_SetCallback 1510                   ??_I2C_SetDataCompleteCallback 000E  
EUSART1_SetOverrunErrorHandler@interruptHandler 0005                                        isa$xinst 0000  
                                      int$flags 0021                           ?_I2C_DO_SEND_ADR_READ 0001  
            __end_of_INTERRUPT_InterruptManager 00B2                      _INTERRUPT_InterruptManager 0008  
                                      main@addr 0088                     _EUSART1_FramingErrorHandler 00DE  
                           _EUSART1_Receive_ISR 1166                        __end_of_I2C_MasterIsNack 1842  
                      __end_of_I2C_MasterSetIrq 193A                                      _INTCONbits 0FF2  
                        ??_INTERRUPT_Initialize 0005                  __end_of_I2C_DO_RX_NACK_RESTART 18E2  
                                      intlevel2 0000                                     ?_I2C_Poller 0001  
                          ?_EUSART1_Receive_ISR 0001                         ?_PIN_MANAGER_Initialize 0001  
                           _I2C_DO_SEND_RESTART 18FA          __end_of_EUSART1_SetOverrunErrorHandler 18C6  
                _EUSART1_SetOverrunErrorHandler 18BC                                      _RCSTA1bits 0FAB  
                  __end_of_EUSART1_Transmit_ISR 1638                          fp__I2C_DO_ADDRESS_NACK 0000  
EUSART1_SetFramingErrorHandler@interruptHandler 0005                         __end_of_I2C_MasterClose 195E  
                ?_EUSART1_SetTxInterruptHandler 0005                              fp__I2C_DO_TX_EMPTY 0000  
                       __end_of_I2C_MasterStart 1956                              _eusart1RxLastError 0018  
                          ?_I2C_DO_SEND_RESTART 0001                                     _SSPCON1bits 0FC6  
                                   _SSPCON2bits 0FC5                         __end_of_I2C_SetCallback 1576  
                         ??_EUSART1_Receive_ISR 0001                  __end_of_PIN_MANAGER_Initialize 173C  
                 __end_of_rd1RegCompleteHandler 16BC                                fp__I2C_DO_RX_ACK 0000  
                 __end_of_wr1RegCompleteHandler 1664                         ??_EUSART1_RxDataHandler 0001  
